(lp0
V0068646
p1
aV0071562
p2
aV0073486
p3
aV0066921
p4
aV0060196
p5
aV0062622
p6
aV0073195
p7
aV0071853
p8
aV0070047
p9
aV0064116
p10
aV0071315
p11
aV0061722
p12
aV0072890
p13
aV0070735
p14
aV0059578
p15
aV0064115
p16
aV0059742
p17
aV0063522
p18
aV0063442
p19
aV0067992
p20
aV0061852
p21
aV0061512
p22
aV0072431
p23
aV0066999
p24
aV0073629
p25
aV0072684
p26
aV0072271
p27
aV0071230
p28
aV0070511
p29
aV0063350
p30
aV0070608
p31
aV0067116
p32
aV0059800
p33
aV0070666
p34
aV0061418
p35
aV0068473
p36
aV0070034
p37
aV0064665
p38
aV0066206
p39
aV0062512
p40
aV0064276
p41
aV0070328
p42
aV0071360
p43
aV0066995
p44
aV0071807
p45
aV0070379
p46
aV0065421
p47
aV0060827
p48
aV0069704
p49
aV0065214
p50
a.(lp0
V0064757
p1
aV0067185
p2
aV0069293
p3
aV0061184
p4
aV0059113
p5
aV0066026
p6
aV0061578
p7
aV0061811
p8
aV0070917
p9
aV0069762
p10
aV0062765
p11
aV0067800
p12
aV0070723
p13
aV0070355
p14
aV0060176
p15
aV0065207
p16
aV0063462
p17
aV0073650
p18
aV0058946
p19
aV0066434
p20
aV0068182
p21
aV0070849
p22
aV0073707
p23
aV0068699
p24
aV0071877
p25
aV0068327
p26
aV0070909
p27
aV0069281
p28
aV0059646
p29
aV0073802
p30
aV0073341
p31
aV0065938
p32
aV0069995
p33
aV0065126
p34
aV0070707
p35
aV0065462
p36
aV0060390
p37
aV0069113
p38
aV0062229
p39
aV0067328
p40
aV0068555
p41
aV0062803
p42
aV0068611
p43
aV0064505
p44
aV0072308
p45
aV0060666
p46
aV0063415
p47
aV0071129
p48
aV0067093
p49
aV0061395
p50
a.(lp0
V0061735
p1
aV0069947
p2
aV0073312
p3
aV0068361
p4
aV0066808
p5
aV0252487
p6
aV0065988
p7
aV0066817
p8
aV0066769
p9
aV0061747
p10
aV0063385
p11
aV0065724
p12
aV0060107
p13
aV0073540
p14
aV0068833
p15
aV0071402
p16
aV0066473
p17
aV0063374
p18
aV0062711
p19
aV0071615
p20
aV0067065
p21
aV0066765
p22
aV0060665
p23
aV0068935
p24
aV0060153
p25
aV0068408
p26
aV0063518
p27
aV0070510
p28
aV0072443
p29
aV0063227
p30
aV0061655
p31
aV0066011
p32
aV0069768
p33
aV0067525
p34
aV0065063
p35
aV0071222
p36
aV0067128
p37
aV0067140
p38
aV0061452
p39
aV0073582
p40
aV0068762
p41
aV0067927
p42
aV0068638
p43
aV0067756
p44
aV0062467
p45
aV0069467
p46
aV0059592
p47
aV0072251
p48
aV0069097
p49
aV0072856
p50
a.(lp0
V0070239
p1
aV0072081
p2
aV0067588
p3
aV0071577
p4
aV0061809
p5
aV0063823
p6
aV0060315
p7
aV0067866
p8
aV0068767
p9
aV0061107
p10
aV0067824
p11
aV0070334
p12
aV0065571
p13
aV0061619
p14
aV0060522
p15
aV0065234
p16
aV0071411
p17
aV0073440
p18
aV0070215
p19
aV0065134
p20
aV0067959
p21
aV0073631
p22
aV0069945
p23
aV0065528
p24
aV0063850
p25
aV0058898
p26
aV0069089
p27
aV0063688
p28
aV0070903
p29
aV0067411
p30
aV0070290
p31
aV0252488
p32
aV0072288
p33
aV0064072
p34
aV0067309
p35
aV0066763
p36
aV0071115
p37
aV0065531
p38
aV0059183
p39
aV0073812
p40
aV0073580
p41
aV0070948
p42
aV0064040
p43
aV0070544
p44
aV0070460
p45
aV0072417
p46
aV0069495
p47
aV0067355
p48
aV0065832
p49
aV0071249
p50
a.(lp0
V0067445
p1
aV0062138
p2
aV0070518
p3
aV0059260
p4
aV0062994
p5
aV0064541
p6
aV0070016
p7
aV0062136
p8
aV0065377
p9
aV0060397
p10
aV0071771
p11
aV0071141
p12
aV0072926
p13
aV0072730
p14
aV0073018
p15
aV0071691
p16
aV0065112
p17
aV0063759
p18
aV0068768
p19
aV0073705
p20
aV0059243
p21
aV0065143
p22
aV0073747
p23
aV0070040
p24
aV0072281
p25
aV0065088
p26
aV0067741
p27
aV0060138
p28
aV0067277
p29
aV0062376
p30
aV0067549
p31
aV0062824
p32
aV0059037
p33
aV0064940
p34
aV0058888
p35
aV0070643
p36
aV0060955
p37
aV0071994
p38
aV0060474
p39
aV0072226
p40
aV0071970
p41
aV0058947
p42
aV0071746
p43
aV0061385
p44
aV0066601
p45
aV0070698
p46
aV0059749
p47
aV0070233
p48
aV0059170
p49
aV0059740
p50
a.(lp0
V0064603
p1
aV0060086
p2
aV0071455
p3
aV0066819
p4
aV0059319
p5
aV0059017
p6
aV0071487
p7
aV0068154
p8
aV0068421
p9
aV0066740
p10
aV0073000
p11
aV0060862
p12
aV0064418
p13
aV0059885
p14
aV0060934
p15
aV0062480
p16
aV0063032
p17
aV0067372
p18
aV0063035
p19
aV0069280
p20
aV0059274
p21
aV0060424
p22
aV0064782
p23
aV0070294
p24
aV0071524
p25
aV0062759
p26
aV0066993
p27
aV0062407
p28
aV0068931
p29
aV0069747
p30
aV0070130
p31
aV0060675
p32
aV0069191
p33
aV0059229
p34
aV0060268
p35
aV0062695
p36
aV0066892
p37
aV0060802
p38
aV0061770
p39
aV0067893
p40
aV0063678
p41
aV0062687
p42
aV0068612
p43
aV0158714
p44
aV0071910
p45
aV0059550
p46
aV0063611
p47
aV0066831
p48
aV0073636
p49
aV0069895
p50
a.(lp0
V0073453
p1
aV0069865
p2
aV0073692
p3
aV0070842
p4
aV0066249
p5
aV0073012
p6
aV0059903
p7
aV0065466
p8
aV0065051
p9
aV0069697
p10
aV0061847
p11
aV0066301
p12
aV0061177
p13
aV0068334
p14
aV0072783
p15
aV0071935
p16
aV0071464
p17
aV0066491
p18
aV0068519
p19
aV0060584
p20
aV0061996
p21
aV0071110
p22
aV0062168
p23
aV0072951
p24
aV0059043
p25
aV0061138
p26
aV0068240
p27
aV0064612
p28
aV0065622
p29
aV0069897
p30
aV0072860
p31
aV0060232
p32
aV0060277
p33
aV0062952
p34
aV0063121
p35
aV0073092
p36
aV0070791
p37
aV0061369
p38
aV0065547
p39
aV0065761
p40
aV0066214
p41
aV0064840
p42
aV0060438
p43
aV0059127
p44
aV0066344
p45
aV0067334
p46
aV0061391
p47
aV0063285
p48
aV0071517
p49
aV0067778
p50
a.(lp0
V0059245
p1
aV0062472
p2
aV0064110
p3
aV0069687
p4
aV0061955
p5
aV0066049
p6
aV0069341
p7
aV0063663
p8
aV0066319
p9
aV0064117
p10
aV0071571
p11
aV0073906
p12
aV0061781
p13
aV0065446
p14
aV0068713
p15
aV0068309
p16
aV0067656
p17
aV0067541
p18
aV0061584
p19
aV0060959
p20
aV0059309
p21
aV0068156
p22
aV0059527
p23
aV0072353
p24
aV0060921
p25
aV0071569
p26
aV0063671
p27
aV0062755
p28
aV0064615
p29
aV0064177
p30
aV0066549
p31
aV0070464
p32
aV0252619
p33
aV0060490
p34
aV0060472
p35
aV0065772
p36
aV0059464
p37
aV0064793
p38
aV0059711
p39
aV0070077
p40
aV0063056
p41
aV0070832
p42
aV0063803
p43
aV0063829
p44
aV0064285
p45
aV0060782
p46
aV0068278
p47
aV0065889
p48
aV0065651
p49
aV0066193
p50
a.(lp0
V0059797
p1
aV0071650
p2
aV0070509
p3
aV0067770
p4
aV0073114
p5
aV0071431
p6
aV0060748
p7
aV0061407
p8
aV0064118
p9
aV0060753
p10
aV0061882
p11
aV0064106
p12
aV0072979
p13
aV0071607
p14
aV0068575
p15
aV0062430
p16
aV0063555
p17
aV0267351
p18
aV0059573
p19
aV0058997
p20
aV0066730
p21
aV0062885
p22
aV0071866
p23
aV0059418
p24
aV0059415
p25
aV0066078
p26
aV0072285
p27
aV0073918
p28
aV0068853
p29
aV0067900
p30
aV0062873
p31
aV0067341
p32
aV0067803
p33
aV0059012
p34
aV0064030
p35
aV0062038
p36
aV0068655
p37
aV0071502
p38
aV0061101
p39
aV0069019
p40
aV0066579
p41
aV0066516
p42
aV0066767
p43
aV0071675
p44
aV0060177
p45
aV0252695
p46
aV0070531
p47
aV0060588
p48
aV0072608
p49
aV0064816
p50
a.(lp0
V0062794
p1
aV0066534
p2
aV0059263
p3
aV0063005
p4
aV0066735
p5
aV0064169
p6
aV0064208
p7
aV0066565
p8
aV0068815
p9
aV0058886
p10
aV0072637
p11
aV0060450
p12
aV0060304
p13
aV0067647
p14
aV0062185
p15
aV0071733
p16
aV0071424
p17
aV0061439
p18
aV0061065
p19
aV0063794
p20
aV0067108
p21
aV0067633
p22
aV0069198
p23
aV0060121
p24
aV0059557
p25
aV0060182
p26
aV0059246
p27
aV0062909
p28
aV0065777
p29
aV0059168
p30
aV0069095
p31
aV0065649
p32
aV0072735
p33
aV0063049
p34
aV0063633
p35
aV0062362
p36
aV0073115
p37
aV0065955
p38
aV0068615
p39
aV0057967
p40
aV0069332
p41
aV0069834
p42
aV0064990
p43
aV0069765
p44
aV0066832
p45
aV0068205
p46
aV0060400
p47
aV0063404
p48
aV0072973
p49
aV0066495
p50
a.(lp0
V0070030
p1
aV0065150
p2
aV0059084
p3
aV0064356
p4
aV0071508
p5
aV0058606
p6
aV0065067
p7
aV0062083
p8
aV0065436
p9
aV0062861
p10
aV0058212
p11
aV0069050
p12
aV0073075
p13
aV0067217
p14
aV0073766
p15
aV0059221
p16
aV0073600
p17
aV0070155
p18
aV0058642
p19
aV0059793
p20
aV0073240
p21
aV0068503
p22
aV0070468
p23
aV0071233
p24
aV0068284
p25
aV0072235
p26
aV0063715
p27
aV0067500
p28
aV0065769
p29
aV0073260
p30
aV0071486
p31
aV0061495
p32
aV0073198
p33
aV0067805
p34
aV0061648
p35
aV0069400
p36
aV0253622
p37
aV0060437
p38
aV0064100
p39
aV0072848
p40
aV0061810
p41
aV0068230
p42
aV0122136
p43
aV0072666
p44
aV0059496
p45
aV0063501
p46
aV0063060
p47
aV0061523
p48
aV0073817
p49
aV0068786
p50
a.(lp0
V0066518
p1
aV0060794
p2
aV0071598
p3
aV0065670
p4
aV0070825
p5
aV0060736
p6
aV0061643
p7
aV0061089
p8
aV0073036
p9
aV0073113
p10
aV0062886
p11
aV0067809
p12
aV0061473
p13
aV0072732
p14
aV0059712
p15
aV0069436
p16
aV0070634
p17
aV0068816
p18
aV0071269
p19
aV0068505
p20
aV0072705
p21
aV0068718
p22
aV0062737
p23
aV0073026
p24
aV0066390
p25
aV0061191
p26
aV0068805
p27
aV0065073
p28
aV0071706
p29
aV0070291
p30
aV0071565
p31
aV0064425
p32
aV0073396
p33
aV0067919
p34
aV0059792
p35
aV0070022
p36
aV0072653
p37
aV0070439
p38
aV0066122
p39
aV0069920
p40
aV0073756
p41
aV0065593
p42
aV0070359
p43
aV0060445
p44
aV0065867
p45
aV0068168
p46
aV0072709
p47
aV0066070
p48
aV0067144
p49
aV0067713
p50
a.(lp0
V0253623
p1
aV0075793
p2
aV0066989
p3
aV0062453
p4
aV0059643
p5
aV0064639
p6
aV0070640
p7
aV0070895
p8
aV0061613
p9
aV0075040
p10
aV0072976
p11
aV0058962
p12
aV0061405
p13
aV0065054
p14
aV0069976
p15
aV0064451
p16
aV0060305
p17
aV0072912
p18
aV0061728
p19
aV0071824
p20
aV0060164
p21
aV0064133
p22
aV0066907
p23
aV0059125
p24
aV0068326
p25
aV0062782
p26
aV0070122
p27
aV0061122
p28
aV0066227
p29
aV0071206
p30
aV0073768
p31
aV0067958
p32
aV0071381
p33
aV0062395
p34
aV0067810
p35
aV0061791
p36
aV0064107
p37
aV0067483
p38
aV0064866
p39
aV0059346
p40
aV0071408
p41
aV0070868
p42
aV0062708
p43
aV0065854
p44
aV0070672
p45
aV0069121
p46
aV0064916
p47
aV0072274
p48
aV0060841
p49
aV0066380
p50
a.(lp0
V0067482
p1
aV0068883
p2
aV0069427
p3
aV0063172
p4
aV0069824
p5
aV0060125
p6
aV0070354
p7
aV0064002
p8
aV0069289
p9
aV0065836
p10
aV0059549
p11
aV0069005
p12
aV0067227
p13
aV0064437
p14
aV0068732
p15
aV0068595
p16
aV0060214
p17
aV0065566
p18
aV0068370
p19
aV0061683
p20
aV0072752
p21
aV0069822
p22
aV0067402
p23
aV0060463
p24
aV0061075
p25
aV0060161
p26
aV0068817
p27
aV0068457
p28
aV0059358
p29
aV0064253
p30
aV0456047
p31
aV0066849
p32
aV0174685
p33
aV0065738
p34
aV0062262
p35
aV0067690
p36
aV0070351
p37
aV0063811
p38
aV0065492
p39
aV0065542
p40
aV0071275
p41
aV0071276
p42
aV0064861
p43
aV0066065
p44
aV0060165
p45
aV0068909
p46
aV0070861
p47
aV0061132
p48
aV0073858
p49
aV0366905
p50
a.(lp0
V0065488
p1
aV0066279
p2
aV0067148
p3
aV0061170
p4
aV0064323
p5
aV0059448
p6
aV0067433
p7
aV0070959
p8
aV0071532
p9
aV0067361
p10
aV0068416
p11
aV0169828
p12
aV0060464
p13
aV0065163
p14
aV0063278
p15
aV0061429
p16
aV0067333
p17
aV0066207
p18
aV0067047
p19
aV0068687
p20
aV0068828
p21
aV0059126
p22
aV0061576
p23
aV0068863
p24
aV0070947
p25
aV0061834
p26
aV0066612
p27
aV0073373
p28
aV0073043
p29
aV0060200
p30
aV0060908
p31
aV0072037
p32
aV0070653
p33
aV0066448
p34
aV0070297
p35
aV0064860
p36
aV0063293
p37
aV0059399
p38
aV0072012
p39
aV0064652
p40
aV0060814
p41
aV0068371
p42
aV0066181
p43
aV0063050
p44
aV0252496
p45
aV0065669
p46
aV0071772
p47
aV0064165
p48
aV0067820
p49
aV0067774
p50
a.(lp0
V0143348
p1
aV0060897
p2
aV0061709
p3
aV0071585
p4
aV0060647
p5
aV0072777
p6
aV0060453
p7
aV0073864
p8
aV0068245
p9
aV0062301
p10
aV0071282
p11
aV0070915
p12
aV0059079
p13
aV0059619
p14
aV0059250
p15
aV0062120
p16
aV0070913
p17
aV0069967
p18
aV0069303
p19
aV0071762
p20
aV0066090
p21
aV0064146
p22
aV0064068
p23
aV0059410
p24
aV0062974
p25
aV0067924
p26
aV0073778
p27
aV0065580
p28
aV0073349
p29
aV0068458
p30
aV0066471
p31
aV0062626
p32
aV0063599
p33
aV0059798
p34
aV0070121
p35
aV0071737
p36
aV0061587
p37
aV0068257
p38
aV0064373
p39
aV0069035
p40
aV0061450
p41
aV0143428
p42
aV0062153
p43
aV0070085
p44
aV0059956
p45
aV0061787
p46
aV0064519
p47
aV0066412
p48
aV0059470
p49
aV0071359
p50
a.(lp0
V0069847
p1
aV0070534
p2
aV0059095
p3
aV0060880
p4
aV0066578
p5
aV0065439
p6
aV0073800
p7
aV0067921
p8
aV0059314
p9
aV0061204
p10
aV0058985
p11
aV0061135
p12
aV0072737
p13
aV0064622
p14
aV0070078
p15
aV0061537
p16
aV0061856
p17
aV0068161
p18
aV0071790
p19
aV0070622
p20
aV0066265
p21
aV0064382
p22
aV0060278
p23
aV0064091
p24
aV0063291
p25
aV0072895
p26
aV0066195
p27
aV0072080
p28
aV0061328
p29
aV0063557
p30
aV0062728
p31
aV0063456
p32
aV0064638
p33
aV0067458
p34
aV0073155
p35
aV0069398
p36
aV0064949
p37
aV0065481
p38
aV0066450
p39
aV0062673
p40
aV0062975
p41
aV0063256
p42
aV0064904
p43
aV0071695
p44
aV0062790
p45
aV0071519
p46
aV0066476
p47
aV0072402
p48
aV0140384
p49
aV0069048
p50
a.(lp0
V0067229
p1
aV0063115
p2
aV0070246
p3
aV0499291
p4
aV0063036
p5
aV0065486
p6
aV0063483
p7
aV0064393
p8
aV0182503
p9
aV0065782
p10
aV0068424
p11
aV0069792
p12
aV0064952
p13
aV0072933
p14
aV0167400
p15
aV0060893
p16
aV0066115
p17
aV0071960
p18
aV0064806
p19
aV0063443
p20
aV0059896
p21
aV0072448
p22
aV0066482
p23
aV0060884
p24
aV0067055
p25
aV0064175
p26
aV0072869
p27
aV0069994
p28
aV0072354
p29
aV0072613
p30
aV0067429
p31
aV0059710
p32
aV0067991
p33
aV0065491
p34
aV0059674
p35
aV0072820
p36
aV0059362
p37
aV0066858
p38
aV0072446
p39
aV0226872
p40
aV0060120
p41
aV0062883
p42
aV0059653
p43
aV0066895
p44
aV0064886
p45
aV0066963
p46
aV0063426
p47
aV0072934
p48
aV0060218
p49
aV0072034
p50
a.(lp0
V0064473
p1
aV0066402
p2
aV0064873
p3
aV0061931
p4
aV0064747
p5
aV0073541
p6
aV0065969
p7
aV0067848
p8
aV0070800
p9
aV0061042
p10
aV0073535
p11
aV0070628
p12
aV0070819
p13
aV0060355
p14
aV0060491
p15
aV0066500
p16
aV0062776
p17
aV0071803
p18
aV0063970
p19
aV0060475
p20
aV0068341
p21
aV0071200
p22
aV0072157
p23
aV0067439
p24
aV0064754
p25
aV0064855
p26
aV0069946
p27
aV0064828
p28
aV0062377
p29
aV0066289
p30
aV0064588
p31
aV0070165
p32
aV0059465
p33
aV0071913
p34
aV0070694
p35
aV0068837
p36
aV0065916
p37
aV0072761
p38
aV0063592
p39
aV0059080
p40
aV0068339
p41
aV0062639
p42
aV0070350
p43
aV0061620
p44
aV0063674
p45
aV0063787
p46
aV0059014
p47
aV0069671
p48
aV0067274
p49
aV0061597
p50
a.(lp0
V0065233
p1
aV0061736
p2
aV0061376
p3
aV0066423
p4
aV0064791
p5
aV0072231
p6
aV0054240
p7
aV0060980
p8
aV0065079
p9
aV0064137
p10
aV0069754
p11
aV0067698
p12
aV0068290
p13
aV0071396
p14
aV0068814
p15
aV0061814
p16
aV0058981
p17
aV0063821
p18
aV0059635
p19
aV0067418
p20
aV0068282
p21
aV0067204
p22
aV0069257
p23
aV0073760
p24
aV0065525
p25
aV0065398
p26
aV0068675
p27
aV0061636
p28
aV0060708
p29
aV0064041
p30
aV0059297
p31
aV0069890
p32
aV0065856
p33
aV0062863
p34
aV0067727
p35
aV0070679
p36
aV0065848
p37
aV0063186
p38
aV0065569
p39
aV0058953
p40
aV0060742
p41
aV0064536
p42
aV0067388
p43
aV0061189
p44
aV0069343
p45
aV0069713
p46
aV0067350
p47
aV0069848
p48
aV0060668
p49
aV0062228
p50
a.(lp0
V0062979
p1
aV0071229
p2
aV0060330
p3
aV0071521
p4
aV0060548
p5
aV0072263
p6
aV0073502
p7
aV0071198
p8
aV0065797
p9
aV0069421
p10
aV0068897
p11
aV0061789
p12
aV0063469
p13
aV0066093
p14
aV0059776
p15
aV0061556
p16
aV0200768
p17
aV0063991
p18
aV0123111
p19
aV0072325
p20
aV0071256
p21
aV0069372
p22
aV0064132
p23
aV0066894
p24
aV0072764
p25
aV0065553
p26
aV0067589
p27
aV0073233
p28
aV0063591
p29
aV0064368
p30
aV0072931
p31
aV0070736
p32
aV0071281
p33
aV0068524
p34
aV0060758
p35
aV0071483
p36
aV0066109
p37
aV0065872
p38
aV0068232
p39
aV0070046
p40
aV0066603
p41
aV0073836
p42
aV0061489
p43
aV0072725
p44
aV0069383
p45
aV0069390
p46
aV0070222
p47
aV0071671
p48
aV0070292
p49
aV0059915
p50
a.(lp0
V0064888
p1
aV0066546
p2
aV0062352
p3
aV0068441
p4
aV0064360
p5
aV0071361
p6
aV0060307
p7
aV0068657
p8
aV0066498
p9
aV0066413
p10
aV0073594
p11
aV0068152
p12
aV0071458
p13
aV0073008
p14
aV0067630
p15
aV0067224
p16
aV0070463
p17
aV0066919
p18
aV0071797
p19
aV0067384
p20
aV0068502
p21
aV0064395
p22
aV0062479
p23
aV0064048
p24
aV0063141
p25
aV0073722
p26
aV0068649
p27
aV0062164
p28
aV0069452
p29
aV0058926
p30
aV0063135
p31
aV0061758
p32
aV0059678
p33
aV0062384
p34
aV0069134
p35
aV0064694
p36
aV0066449
p37
aV0065908
p38
aV0066561
p39
aV0066492
p40
aV0062082
p41
aV0060420
p42
aV0062151
p43
aV0062671
p44
aV0066924
p45
aV0066952
p46
aV0226874
p47
aV0060574
p48
aV0060097
p49
aV0062380
p50
a.(lp0
V0063152
p1
aV0066798
p2
aV0065417
p3
aV0066914
p4
aV0061678
p5
aV0065555
p6
aV0059727
p7
aV0065537
p8
aV0073298
p9
aV0064045
p10
aV0067454
p11
aV0062190
p12
aV0061420
p13
aV0067367
p14
aV0067419
p15
aV0071221
p16
aV0061780
p17
aV0071583
p18
aV0060095
p19
aV0063845
p20
aV0061868
p21
aV0127354
p22
aV0070337
p23
aV0065032
p24
aV0253377
p25
aV0071514
p26
aV0065152
p27
aV0059878
p28
aV0069738
p29
aV0063185
p30
aV0059124
p31
aV0060560
p32
aV0066830
p33
aV0071216
p34
aV0059224
p35
aV0066732
p36
aV0192718
p37
aV0062893
p38
aV0253791
p39
aV0064688
p40
aV0065611
p41
aV0069442
p42
aV0068264
p43
aV0070358
p44
aV0061680
p45
aV0065524
p46
aV0068528
p47
aV0060050
p48
aV0072021
p49
aV0070656
p50
a.(lp0
V0061647
p1
aV0062310
p2
aV0071203
p3
aV0063668
p4
aV0060481
p5
aV0065225
p6
aV0070061
p7
aV0064513
p8
aV0067650
p9
aV0072351
p10
aV0071155
p11
aV0067524
p12
aV0064975
p13
aV0063642
p14
aV0065695
p15
aV0067176
p16
aV0069715
p17
aV0065963
p18
aV0071338
p19
aV0060440
p20
aV0070814
p21
aV0068273
p22
aV0071266
p23
aV0059166
p24
aV0065851
p25
aV0061715
p26
aV0063634
p27
aV0062925
p28
aV0059065
p29
aV0067610
p30
aV0063218
p31
aV0066040
p32
aV0072368
p33
aV0061094
p34
aV0070300
p35
aV0069528
p36
aV0069956
p37
aV0059219
p38
aV0063356
p39
aV0073133
p40
aV0067962
p41
aV0064074
p42
aV0067961
p43
aV0069239
p44
aV0073639
p45
aV0059311
p46
aV0070248
p47
aV0073488
p48
aV0059673
p49
aV0064387
p50
a.(lp0
V0059106
p1
aV0071523
p2
aV0253639
p3
aV0066927
p4
aV0068997
p5
aV0068367
p6
aV0064338
p7
aV0068661
p8
aV0060446
p9
aV0063808
p10
aV0065037
p11
aV0064728
p12
aV0061634
p13
aV0063210
p14
aV0067409
p15
aV0063013
p16
aV0064296
p17
aV0069235
p18
aV0073470
p19
aV0065206
p20
aV0062713
p21
aV0066728
p22
aV0066970
p23
aV0059812
p24
aV0071622
p25
aV0063023
p26
aV0070935
p27
aV0073623
p28
aV0061502
p29
aV0061456
p30
aV0069404
p31
aV0061671
p32
aV0072750
p33
aV0068688
p34
aV0061343
p35
aV0071840
p36
aV0071566
p37
aV0069883
p38
aV0062425
p39
aV0062827
p40
aV0070820
p41
aV0060482
p42
aV0067487
p43
aV0063094
p44
aV0060645
p45
aV0062833
p46
aV0063771
p47
aV0063386
p48
aV0069073
p49
aV0064471
p50
a.(lp0
V0073109
p1
aV0061557
p2
aV0069007
p3
aV0059563
p4
aV0070565
p5
aV0064789
p6
aV0065215
p7
aV0067976
p8
aV0065950
p9
aV0067017
p10
aV0067315
p11
aV0068000
p12
aV0068902
p13
aV0063198
p14
aV0068025
p15
aV0066053
p16
aV0073227
p17
aV0073424
p18
aV0066563
p19
aV0066745
p20
aV0064381
p21
aV0061176
p22
aV0059895
p23
aV0066461
p24
aV0072267
p25
aV0063729
p26
aV0068672
p27
aV0061759
p28
aV0073168
p29
aV0073169
p30
aV0064397
p31
aV0059269
p32
aV0069278
p33
aV0075019
p34
aV0065597
p35
aV0066585
p36
aV0073482
p37
aV0069745
p38
aV0072996
p39
aV0061695
p40
aV0070356
p41
aV0063571
p42
aV0072886
p43
aV0061015
p44
aV0253960
p45
aV0059205
p46
aV0059049
p47
aV0063775
p48
aV0065391
p49
aV0060726
p50
a.(lp0
V0069031
p1
aV0066811
p2
aV0071358
p3
aV0060429
p4
aV0061749
p5
aV0060636
p6
aV0067814
p7
aV0123392
p8
aV0073835
p9
aV0071241
p10
aV0068347
p11
aV0062277
p12
aV0067592
p13
aV0062292
p14
aV0123390
p15
aV0061115
p16
aV0060558
p17
aV0252084
p18
aV0071448
p19
aV0067672
p20
aV0073335
p21
aV0066950
p22
aV0073559
p23
aV0989831
p24
aV0069159
p25
aV0067641
p26
aV0060891
p27
aV0061842
p28
aV0060714
p29
aV0075016
p30
aV0073605
p31
aV0065489
p32
aV0067625
p33
aV0072190
p34
aV0060728
p35
aV0073282
p36
aV0065106
p37
aV0073796
p38
aV0059831
p39
aV0062266
p40
aV0062657
p41
aV0072204
p42
aV0062089
p43
aV0068271
p44
aV0062445
p45
aV0073221
p46
aV0064573
p47
aV0067975
p48
aV0069833
p49
aV0060380
p50
a.(lp0
V0065579
p1
aV0059729
p2
aV0123391
p3
aV0074565
p4
aV0060637
p5
aV0071613
p6
aV0074883
p7
aV0061074
p8
aV0068650
p9
aV0069810
p10
aV0066856
p11
aV0274932
p12
aV0067696
p13
aV0180749
p14
aV0068190
p15
aV0064155
p16
aV0066550
p17
aV0061581
p18
aV0129273
p19
aV0067885
p20
aV0067789
p21
aV0059518
p22
aV0071939
p23
aV0068950
p24
aV0072184
p25
aV0060401
p26
aV0068226
p27
aV0067321
p28
aV0061398
p29
aV0073461
p30
aV0062006
p31
aV0063240
p32
aV0066318
p33
aV0067528
p34
aV0059764
p35
aV0067950
p36
aV0059076
p37
aV0165473
p38
aV0065148
p39
aV0060747
p40
aV0073915
p41
aV0063260
p42
aV0069197
p43
aV0067763
p44
aV0065036
p45
aV0070474
p46
aV0066160
p47
aV0065874
p48
aV0062825
p49
aV0185853
p50
a.(lp0
V0073901
p1
aV0059856
p2
aV0078222
p3
aV0066906
p4
aV0065416
p5
aV0059661
p6
aV0058983
p7
aV0065591
p8
aV0071334
p9
aV0064256
p10
aV0070506
p11
aV0062069
p12
aV0069120
p13
aV0071864
p14
aV0059159
p15
aV0065922
p16
aV0059303
p17
aV0069718
p18
aV0126004
p19
aV0059255
p20
aV0064755
p21
aV0059112
p22
aV0069103
p23
aV0066064
p24
aV0061209
p25
aV0064893
p26
aV0062767
p27
aV0073663
p28
aV0072253
p29
aV0060545
p30
aV0066415
p31
aV0060635
p32
aV0071150
p33
aV0070434
p34
aV0063800
p35
aV0058930
p36
aV0063231
p37
aV0069818
p38
aV0069369
p39
aV0060223
p40
aV0063348
p41
aV0067989
p42
aV0067546
p43
aV0064498
p44
aV0976030
p45
aV0061196
p46
aV0062864
p47
aV0070287
p48
aV0062870
p49
aV0073172
p50
a.(lp0
V0132888
p1
aV0212408
p2
aV0068617
p3
aV0073019
p4
aV0065744
p5
aV0068346
p6
aV0068569
p7
aV0064494
p8
aV0072225
p9
aV0068444
p10
aV0064300
p11
aV0070928
p12
aV0058909
p13
aV0224077
p14
aV0060818
p15
aV0060168
p16
aV0215911
p17
aV0064546
p18
aV0064616
p19
aV0059474
p20
aV0072007
p21
aV0070557
p22
aV0064624
p23
aV0073615
p24
aV0060877
p25
aV0063612
p26
aV0069042
p27
aV0073626
p28
aV0058343
p29
aV0068435
p30
aV0059887
p31
aV0072826
p32
aV0066758
p33
aV0060661
p34
aV0070212
p35
aV0067750
p36
aV0071212
p37
aV0071950
p38
aV0063740
p39
aV0070453
p40
aV0059555
p41
aV0071690
p42
aV0073207
p43
aV0062482
p44
aV0064553
p45
aV0061912
p46
aV0062037
p47
aV0073096
p48
aV0060074
p49
aV0067124
p50
a.(lp0
V0063573
p1
aV0068323
p2
aV0071628
p3
aV0059044
p4
aV0067535
p5
aV0059162
p6
aV0217590
p7
aV0061024
p8
aV0073442
p9
aV0330536
p10
aV0065125
p11
aV0075007
p12
aV0095012
p13
aV0064645
p14
aV0069753
p15
aV0180396
p16
aV0067245
p17
aV0073042
p18
aV0068286
p19
aV0071907
p20
aV0068716
p21
aV0061550
p22
aV0068509
p23
aV0070758
p24
aV0068577
p25
aV0062751
p26
aV0064403
p27
aV0145777
p28
aV0061653
p29
aV0067052
p30
aV0122770
p31
aV0073166
p32
aV0062457
p33
aV0065261
p34
aV0065180
p35
aV0070184
p36
aV0069029
p37
aV0059447
p38
aV0065522
p39
aV0066530
p40
aV0056585
p41
aV0070363
p42
aV0069291
p43
aV0067134
p44
aV0061197
p45
aV0063493
p46
aV0063149
p47
aV0066237
p48
aV0063371
p49
aV0063206
p50
a.(lp0
V0063694
p1
aV0064691
p2
aV0070696
p3
aV0061876
p4
aV0067329
p5
aV0274931
p6
aV0069311
p7
aV0072610
p8
aV0069027
p9
aV0067995
p10
aV0061080
p11
aV0063876
p12
aV0060094
p13
aV0059477
p14
aV0065451
p15
aV0060479
p16
aV0061389
p17
aV0178186
p18
aV0059538
p19
aV0061357
p20
aV0072355
p21
aV0067314
p22
aV0067517
p23
aV0065636
p24
aV0062235
p25
aV0061610
p26
aV0066104
p27
aV0067467
p28
aV0061113
p29
aV0073163
p30
aV0061595
p31
aV0060143
p32
aV0063977
p33
aV0069815
p34
aV0139820
p35
aV0067386
p36
aV0069518
p37
aV0059094
p38
aV0064555
p39
aV0071357
p40
aV0063818
p41
aV0063790
p42
aV0072317
p43
aV0073324
p44
aV0059934
p45
aV0062477
p46
aV0067123
p47
aV0066863
p48
aV0068576
p49
aV0068539
p50
a.(lp0
V0063452
p1
aV0067484
p2
aV0060640
p3
aV0069449
p4
aV0072053
p5
aV0066842
p6
aV0061819
p7
aV0063379
p8
aV0062360
p9
aV0059715
p10
aV0065760
p11
aV0066602
p12
aV0068384
p13
aV0069282
p14
aV0068337
p15
aV0073107
p16
aV0071627
p17
aV0072196
p18
aV0066982
p19
aV0060586
p20
aV0073391
p21
aV0064699
p22
aV0063654
p23
aV0071688
p24
aV0072209
p25
aV0060395
p26
aV0063527
p27
aV0054724
p28
aV0067397
p29
aV0070834
p30
aV0123313
p31
aV0072884
p32
aV0062078
p33
aV0062844
p34
aV0067327
p35
aV0067003
p36
aV0066564
p37
aV0070262
p38
aV0072930
p39
aV0066773
p40
aV0070169
p41
aV0067815
p42
aV0182765
p43
aV0067983
p44
aV0068669
p45
aV0070689
p46
aV0061549
p47
aV0069225
p48
aV0062977
p49
aV0059958
p50
a.(lp0
V0064160
p1
aV0059050
p2
aV0064542
p3
aV0469636
p4
aV0068981
p5
aV0066511
p6
aV0067345
p7
aV0070190
p8
aV0064683
p9
aV0068727
p10
aV0247394
p11
aV0064785
p12
aV0062141
p13
aV0065086
p14
aV0060983
p15
aV0066154
p16
aV0071721
p17
aV0068414
p18
aV0071412
p19
aV0061037
p20
aV0059601
p21
aV0071413
p22
aV0065808
p23
aV0073896
p24
aV0059675
p25
aV0061447
p26
aV0062133
p27
aV0068294
p28
aV0069124
p29
aV0061590
p30
aV0063288
p31
aV0072603
p32
aV0060288
p33
aV0068364
p34
aV0069393
p35
aV0069273
p36
aV0070770
p37
aV0073755
p38
aV0071159
p39
aV0061465
p40
aV0067491
p41
aV0145891
p42
aV0180735
p43
aV0061786
p44
aV0075710
p45
aV0063000
p46
aV0226875
p47
aV0068916
p48
aV0059287
p49
aV0274933
p50
a.(lp0
V0062502
p1
aV0060261
p2
aV0061752
p3
aV0067881
p4
aV0276793
p5
aV0067168
p6
aV0070957
p7
aV0066827
p8
aV0073691
p9
aV0059540
p10
aV0065241
p11
aV0060287
p12
aV0228853
p13
aV0066016
p14
aV0061669
p15
aV0066130
p16
aV0070039
p17
aV0499305
p18
aV0069737
p19
aV0069987
p20
aV0827739
p21
aV0062865
p22
aV0070245
p23
aV0068348
p24
aV0069838
p25
aV0059942
p26
aV0135509
p27
aV0063173
p28
aV0182764
p29
aV0138074
p30
aV0069013
p31
aV0064225
p32
aV0067162
p33
aV0073634
p34
aV0062851
p35
aV0062060
p36
aV0279173
p37
aV0067119
p38
aV0174707
p39
aV0073343
p40
aV0073317
p41
aV0067446
p42
aV0060414
p43
aV0071782
p44
aV0061411
p45
aV0073697
p46
aV0069840
p47
aV0061433
p48
aV0070592
p49
aV0070158
p50
a.(lp0
V0067732
p1
aV0072198
p2
aV0062092
p3
aV0062690
p4
aV0059199
p5
aV0064923
p6
aV0062741
p7
aV0068014
p8
aV0069451
p9
aV0069024
p10
aV0066844
p11
aV0065839
p12
aV0067580
p13
aV0063643
p14
aV0072284
p15
aV0069530
p16
aV0476406
p17
aV0073720
p18
aV0060903
p19
aV0069229
p20
aV0059893
p21
aV0070726
p22
aV0067773
p23
aV0164982
p24
aV0064036
p25
aV0068379
p26
aV0062804
p27
aV0064379
p28
aV0073880
p29
aV0060188
p30
aV0059348
p31
aV0071385
p32
aV0059499
p33
aV0064265
p34
aV0072665
p35
aV0124836
p36
aV0065168
p37
aV0070680
p38
aV0062155
p39
aV0062411
p40
aV0067916
p41
aV0071682
p42
aV0068983
p43
aV0063636
p44
aV0065720
p45
aV0073327
p46
aV0069466
p47
aV0067963
p48
aV0068971
p49
aV0072662
p50
a.(lp0
V0071330
p1
aV0060543
p2
aV0071863
p3
aV0067943
p4
aV0073345
p5
aV0068415
p6
aV0282140
p7
aV0071956
p8
aV0070299
p9
aV0063219
p10
aV0069786
p11
aV0071259
p12
aV0067302
p13
aV0072747
p14
aV0061320
p15
aV0061198
p16
aV0183338
p17
aV0073714
p18
aV0058439
p19
aV0123335
p20
aV0060879
p21
aV0062271
p22
aV0142257
p23
aV0067972
p24
aV0059453
p25
aV0066256
p26
aV0067457
p27
aV0061073
p28
aV0061203
p29
aV0196750
p30
aV0068619
p31
aV0169620
p32
aV0272118
p33
aV0065677
p34
aV0060801
p35
aV0064674
p36
aV0066940
p37
aV0181600
p38
aV0068428
p39
aV0068795
p40
aV0070013
p41
aV0071859
p42
aV0067979
p43
aV0061826
p44
aV0067216
p45
aV0062636
p46
aV0068305
p47
aV0064390
p48
aV0060865
p49
aV0064704
p50
a.(lp0
V0063834
p1
aV0062645
p2
aV0070734
p3
aV0066540
p4
aV0062907
p5
aV0062990
p6
aV0072206
p7
aV0071550
p8
aV0392262
p9
aV0062490
p10
aV0069966
p11
aV0059143
p12
aV0068698
p13
aV0246135
p14
aV0066834
p15
aV0062150
p16
aV0061696
p17
aV0061014
p18
aV0059565
p19
aV0060722
p20
aV0064000
p21
aV0059930
p22
aV0066593
p23
aV0061180
p24
aV0065119
p25
aV0064217
p26
aV0068431
p27
aV0183570
p28
aV0065989
p29
aV0068200
p30
aV0067658
p31
aV0064621
p32
aV0063661
p33
aV0069358
p34
aV0071949
p35
aV0070860
p36
aV0069464
p37
aV0132376
p38
aV0055024
p39
aV0064038
p40
aV0061796
p41
aV0070826
p42
aV0060754
p43
aV0060186
p44
aV0063615
p45
aV0064708
p46
aV0065820
p47
aV0070099
p48
aV0061520
p49
aV0071406
p50
a.(lp0
V0070788
p1
aV0059377
p2
aV0063010
p3
aV0072991
p4
aV0068471
p5
aV0067637
p6
aV0061784
p7
aV0071687
p8
aV0073496
p9
aV0070827
p10
aV0069460
p11
aV0073784
p12
aV0067464
p13
aV0062323
p14
aV0072867
p15
aV0064727
p16
aV0067729
p17
aV0063410
p18
aV0068207
p19
aV0067952
p20
aV0071194
p21
aV0062113
p22
aV0063769
p23
aV0062080
p24
aV0064405
p25
aV0274934
p26
aV0061765
p27
aV0066050
p28
aV0184950
p29
aV0071507
p30
aV0071537
p31
aV0061173
p32
aV0061401
p33
aV0062218
p34
aV0069371
p35
aV0067242
p36
aV0145006
p37
aV0062446
p38
aV0065981
p39
aV0068306
p40
aV0070654
p41
aV0069729
p42
aV0070472
p43
aV0065570
p44
aV0066258
p45
aV0070605
p46
aV0062032
p47
aV0069909
p48
aV0067671
p49
aV0060476
p50
a.(lp0
V0064148
p1
aV0065230
p2
aV0069989
p3
aV0065932
p4
aV0144782
p5
aV0068658
p6
aV0070244
p7
aV0229371
p8
aV0066826
p9
aV0061412
p10
aV0065662
p11
aV0065360
p12
aV0066001
p13
aV0263404
p14
aV0060538
p15
aV0060457
p16
aV0263283
p17
aV0068504
p18
aV0125301
p19
aV0063369
p20
aV0069952
p21
aV0059015
p22
aV0060956
p23
aV0070217
p24
aV0182730
p25
aV0065755
p26
aV0062518
p27
aV0186725
p28
aV0069237
p29
aV1184952
p30
aV0069516
p31
aV0066900
p32
aV0061592
p33
aV0065396
p34
aV0059063
p35
aV0066939
p36
aV0065788
p37
aV0067601
p38
aV0434964
p39
aV0072245
p40
aV0068491
p41
aV0062898
p42
aV0202154
p43
aV0065198
p44
aV0061093
p45
aV0202604
p46
aV0067716
p47
aV0059884
p48
aV0065457
p49
aV0059320
p50
a.(lp0
V0067699
p1
aV0067109
p2
aV0067164
p3
aV0059431
p4
aV0066407
p5
aV0067434
p6
aV0061005
p7
aV0068659
p8
aV0123186
p9
aV0063485
p10
aV0059417
p11
aV0061029
p12
aV0069251
p13
aV0060648
p14
aV0066870
p15
aV0072107
p16
aV0075140
p17
aV0070794
p18
aV0071080
p19
aV0132377
p20
aV0071788
p21
aV0061568
p22
aV0126449
p23
aV0069492
p24
aV0066936
p25
aV0164983
p26
aV0062207
p27
aV0070423
p28
aV0062493
p29
aV0063835
p30
aV0067118
p31
aV0065775
p32
aV0067040
p33
aV0067084
p34
aV0274935
p35
aV0136551
p36
aV0068990
p37
aV0061140
p38
aV0071890
p39
aV0200710
p40
aV0073878
p41
aV0069690
p42
aV0064240
p43
aV0071207
p44
aV0064158
p45
aV0069318
p46
aV0068310
p47
aV0073679
p48
aV0283693
p49
aV0060135
p50
a.(lp0
V0132378
p1
aV0063568
p2
aV0070537
p3
aV0059390
p4
aV0059114
p5
aV0060112
p6
aV0060063
p7
aV0058361
p8
aV0064924
p9
aV0070444
p10
aV0061733
p11
aV0218181
p12
aV0151035
p13
aV0065187
p14
aV0072409
p15
aV0069851
p16
aV0068369
p17
aV0064579
p18
aV0072260
p19
aV0206938
p20
aV0062159
p21
aV0059880
p22
aV0067069
p23
aV0061359
p24
aV0061893
p25
aV0071899
p26
aV0064939
p27
aV0060486
p28
aV0063801
p29
aV0072435
p30
aV0068189
p31
aV0063090
p32
aV0226873
p33
aV0064651
p34
aV0069279
p35
aV0066824
p36
aV0065642
p37
aV0069841
p38
aV0065936
p39
aV0128960
p40
aV0062414
p41
aV0061994
p42
aV0066031
p43
aV0061017
p44
aV0061594
p45
aV0069021
p46
aV0063091
p47
aV0060701
p48
aV0069808
p49
aV0069158
p50
a.(lp0
V0063731
p1
aV0067755
p2
aV0062177
p3
aV0071908
p4
aV0065895
p5
aV0069017
p6
aV0289782
p7
aV0061801
p8
aV0132384
p9
aV0072233
p10
aV0142998
p11
aV0064839
p12
aV0063679
p13
aV0061957
p14
aV0061059
p15
aV0234542
p16
aV0065852
p17
aV0179890
p18
aV0069515
p19
aV0064247
p20
aV0062443
p21
aV0070636
p22
aV0063142
p23
aV0070809
p24
aV0135625
p25
aV0067980
p26
aV0072791
p27
aV0066806
p28
aV0068629
p29
aV0143012
p30
aV0071145
p31
aV0059045
p32
aV0151511
p33
aV0074797
p34
aV0066365
p35
aV0064703
p36
aV0071976
p37
aV0174708
p38
aV0067313
p39
aV0074921
p40
aV0223777
p41
aV0080479
p42
aV0070687
p43
aV0061855
p44
aV0326098
p45
aV0064781
p46
aV0059241
p47
aV0070235
p48
aV0058863
p49
aV0232152
p50
a.(lp0
V0066968
p1
aV0074849
p2
aV0216067
p3
aV0066639
p4
aV0061087
p5
aV0060566
p6
aV0061802
p7
aV0062455
p8
aV0071696
p9
aV0060116
p10
aV0070083
p11
aV0254688
p12
aV0067486
p13
aV0060049
p14
aV0070908
p15
aV0059813
p16
aV0069990
p17
aV0064606
p18
aV0069823
p19
aV0073946
p20
aV0072201
p21
aV0083155
p22
aV0067183
p23
aV0060689
p24
aV0069414
p25
aV0063242
p26
aV0068285
p27
aV0072148
p28
aV0124012
p29
aV0062957
p30
aV0242601
p31
aV0061380
p32
aV0072195
p33
aV0063765
p34
aV0067219
p35
aV0063595
p36
aV0067009
p37
aV0074705
p38
aV0065850
p39
aV0064598
p40
aV0064147
p41
aV0135756
p42
aV0066141
p43
aV0068939
p44
aV0201922
p45
aV0068448
p46
aV0068704
p47
aV0071784
p48
aV0069179
p49
aV0063161
p50
a.(lp0
V0072825
p1
aV0180033
p2
aV0062760
p3
aV0060228
p4
aV0282788
p5
aV0071647
p6
aV0122685
p7
aV0072831
p8
aV0061162
p9
aV0073363
p10
aV0069080
p11
aV0059637
p12
aV0191625
p13
aV0065380
p14
aV0068972
p15
aV0066815
p16
aV0068521
p17
aV0072156
p18
aV0066184
p19
aV0064679
p20
aV0064273
p21
aV0068850
p22
aV0062946
p23
aV0071786
p24
aV0073045
p25
aV0067306
p26
aV0059872
p27
aV0070424
p28
aV0072822
p29
aV0070289
p30
aV0392393
p31
aV0065776
p32
aV0072305
p33
aV0068173
p34
aV0064443
p35
aV0064400
p36
aV0068498
p37
aV0315255
p38
aV0122617
p39
aV0063764
p40
aV0069795
p41
aV0060048
p42
aV0065948
p43
aV0067515
p44
aV0059914
p45
aV0254782
p46
aV0175157
p47
aV0070157
p48
aV0072228
p49
aV0062373
p50
a.(lp0
V0071833
p1
aV0068954
p2
aV0064714
p3
aV0065478
p4
aV0071449
p5
aV0061072
p6
aV0066536
p7
aV0062393
p8
aV0072331
p9
aV0071095
p10
aV0070326
p11
aV0058954
p12
aV0062793
p13
aV0066848
p14
aV0070238
p15
aV0070731
p16
aV0070578
p17
aV0072030
p18
aV0061976
p19
aV0068724
p20
aV0070170
p21
aV0066886
p22
aV0202153
p23
aV0129631
p24
aV0059252
p25
aV0072439
p26
aV0059794
p27
aV0065656
p28
aV0279693
p29
aV0059298
p30
aV0060529
p31
aV0070641
p32
aV0067375
p33
aV0061477
p34
aV0064035
p35
aV0451788
p36
aV0072814
p37
aV0065031
p38
aV0062997
p39
aV0061754
p40
aV0065666
p41
aV0065243
p42
aV0071557
p43
aV0073620
p44
aV0064827
p45
aV0065470
p46
aV0226018
p47
aV0059837
p48
aV0059462
p49
aV0059641
p50
a.(lp0
V0062036
p1
aV0068654
p2
aV0066124
p3
aV0056537
p4
aV0132379
p5
aV0066392
p6
aV0070851
p7
aV0062789
p8
aV0070637
p9
aV0199905
p10
aV0473114
p11
aV0197485
p12
aV0069986
p13
aV0129222
p14
aV0066108
p15
aV0069141
p16
aV0063508
p17
aV0073471
p18
aV0060520
p19
aV0070854
p20
aV0065482
p21
aV0060991
p22
aV0060848
p23
aV0068920
p24
aV0124621
p25
aV0064409
p26
aV0070603
p27
aV0063791
p28
aV0150864
p29
aV0063414
p30
aV0411821
p31
aV0061414
p32
aV0069228
p33
aV0062259
p34
aV0071101
p35
aV0070017
p36
aV0154685
p37
aV0072236
p38
aV0070116
p39
aV0070109
p40
aV0072307
p41
aV0128364
p42
aV0063458
p43
aV0073275
p44
aV0060798
p45
aV0279901
p46
aV0063254
p47
aV0057892
p48
aV0073637
p49
aV0180843
p50
a.(lp0
V0063389
p1
aV0062363
p2
aV0066845
p3
aV0062456
p4
aV0060484
p5
aV0180841
p6
aV0066445
p7
aV0069067
p8
aV0073028
p9
aV0070128
p10
aV0073581
p11
aV0065193
p12
aV0063840
p13
aV0062808
p14
aV0070835
p15
aV0071512
p16
aV0060581
p17
aV0136997
p18
aV0064417
p19
aV0070556
p20
aV0070413
p21
aV0058621
p22
aV0200740
p23
aV0239096
p24
aV0069974
p25
aV0165629
p26
aV0071587
p27
aV0073091
p28
aV0061387
p29
aV0069881
p30
aV0070133
p31
aV0072403
p32
aV0059460
p33
aV0072362
p34
aV0069919
p35
aV0068596
p36
aV0068313
p37
aV0071089
p38
aV0065620
p39
aV0070869
p40
aV0071260
p41
aV0153509
p42
aV0069951
p43
aV0223783
p44
aV0065331
p45
aV0068746
p46
aV0061504
p47
aV0062288
p48
aV0062035
p49
aV0067385
p50
a.(lp0
V0066988
p1
aV0072100
p2
aV0077525
p3
aV0063297
p4
aV0062868
p5
aV0072208
p6
aV0062859
p7
aV0061748
p8
aV0070782
p9
aV0163114
p10
aV0073765
p11
aV0392225
p12
aV0206154
p13
aV0171343
p14
aV0318028
p15
aV0063995
p16
aV0074080
p17
aV0171408
p18
aV0062358
p19
aV0064609
p20
aV0072229
p21
aV0066156
p22
aV0059336
p23
aV0060760
p24
aV0069087
p25
aV0067068
p26
aV0070188
p27
aV0064846
p28
aV0062985
p29
aV0198488
p30
aV0072067
p31
aV0064307
p32
aV0061333
p33
aV0065226
p34
aV0060613
p35
aV0073624
p36
aV0068744
p37
aV0069165
p38
aV0071838
p39
aV0069458
p40
aV0065979
p41
aV0060295
p42
aV0065595
p43
aV0063275
p44
aV0070684
p45
aV0067076
p46
aV0063063
p47
aV0062819
p48
aV0064353
p49
aV0067853
p50
a.(lp0
V0071258
p1
aV0069047
p2
aV0062429
p3
aV0070748
p4
aV0285589
p5
aV0072136
p6
aV0071938
p7
aV0070438
p8
aV0065750
p9
aV0072239
p10
aV0069243
p11
aV0072320
p12
aV0068235
p13
aV0068246
p14
aV0068676
p15
aV0070270
p16
aV0061850
p17
aV0152492
p18
aV0068321
p19
aV0064019
p20
aV0064439
p21
aV0064470
p22
aV0059905
p23
aV0066429
p24
aV0072248
p25
aV0065224
p26
aV0070068
p27
aV0071437
p28
aV0175294
p29
aV0068022
p30
aV0059649
p31
aV0066374
p32
aV0064729
p33
aV0064506
p34
aV0070393
p35
aV0187044
p36
aV0070795
p37
aV0072349
p38
aV0062041
p39
aV0180717
p40
aV0122371
p41
aV0066105
p42
aV0068454
p43
aV0069933
p44
aV0070552
p45
aV0061971
p46
aV0064815
p47
aV0062276
p48
aV0062042
p49
aV0059232
p50
a.(lp0
V0066553
p1
aV0071318
p2
aV0244776
p3
aV0067511
p4
aV0071800
p5
aV0065374
p6
aV0064193
p7
aV0066996
p8
aV0069041
p9
aV0069265
p10
aV0062009
p11
aV0072170
p12
aV0072401
p13
aV0071663
p14
aV0068288
p15
aV0063080
p16
aV0068206
p17
aV0073190
p18
aV0069958
p19
aV0062757
p20
aV0073586
p21
aV0064122
p22
aV0058977
p23
aV0071535
p24
aV0060416
p25
aV0059290
p26
aV0151750
p27
aV0068011
p28
aV0063026
p29
aV0066286
p30
aV0070064
p31
aV0058933
p32
aV0064179
p33
aV0145300
p34
aV0147374
p35
aV0067396
p36
aV0058917
p37
aV0067591
p38
aV0072342
p39
aV0060045
p40
aV0066341
p41
aV0069375
p42
aV0071880
p43
aV1388371
p44
aV0392261
p45
aV0071629
p46
aV0065727
p47
aV0066302
p48
aV0066468
p49
aV0059459
p50
a.(lp0
V0069536
p1
aV0058787
p2
aV0065076
p3
aV0067489
p4
aV0063683
p5
aV0065195
p6
aV0063569
p7
aV0059558
p8
aV0061474
p9
aV0069094
p10
aV0263534
p11
aV0063098
p12
aV0065511
p13
aV0059633
p14
aV0059832
p15
aV0062656
p16
aV0204544
p17
aV0060174
p18
aV0062714
p19
aV0069091
p20
aV0066816
p21
aV0059373
p22
aV0063128
p23
aV0062758
p24
aV0069219
p25
aV0068637
p26
aV0058920
p27
aV0451930
p28
aV0073841
p29
aV0061497
p30
aV0064294
p31
aV0064695
p32
aV0291202
p33
aV0073627
p34
aV0060741
p35
aV0061883
p36
aV0062688
p37
aV0068625
p38
aV0132935
p39
aV0072205
p40
aV0183368
p41
aV0060126
p42
aV0063500
p43
aV0068866
p44
aV0059025
p45
aV0059709
p46
aV0071957
p47
aV0060148
p48
aV0159948
p49
aV0065600
p50
a.(lp0
V0068492
p1
aV0063380
p2
aV0061742
p3
aV0061409
p4
aV0288443
p5
aV0061081
p6
aV0072785
p7
aV0064907
p8
aV0069736
p9
aV0061605
p10
aV0062814
p11
aV0061085
p12
aV0059829
p13
aV0066862
p14
aV0207145
p15
aV0069270
p16
aV0062426
p17
aV0062829
p18
aV0057977
p19
aV0061858
p20
aV0134854
p21
aV0067276
p22
aV0062022
p23
aV0066262
p24
aV0392396
p25
aV0070855
p26
aV0067846
p27
aV0065104
p28
aV0062473
p29
aV0068748
p30
aV0073367
p31
aV0195324
p32
aV0069796
p33
aV0067757
p34
aV0062707
p35
aV1104069
p36
aV0200564
p37
aV0069820
p38
aV0072993
p39
aV0070547
p40
aV0073051
p41
aV0068772
p42
aV0063859
p43
aV0064458
p44
aV0064643
p45
aV0072699
p46
aV0073933
p47
aV0059581
p48
aV0071214
p49
aV0065660
p50
a.(lp0
V0142773
p1
aV0069186
p2
aV0069057
p3
aV0063105
p4
aV0067141
p5
aV0143016
p6
aV0060866
p7
aV0070673
p8
aV0059100
p9
aV0064687
p10
aV0058216
p11
aV0065026
p12
aV0064680
p13
aV0069988
p14
aV0059039
p15
aV0062663
p16
aV0066121
p17
aV0063598
p18
aV0066266
p19
aV0064819
p20
aV0066542
p21
aV0063370
p22
aV0065887
p23
aV0068291
p24
aV0069478
p25
aV0066841
p26
aV0072812
p27
aV0067870
p28
aV0069046
p29
aV0063737
p30
aV0070705
p31
aV0073526
p32
aV0064188
p33
aV0065052
p34
aV0064073
p35
aV0069308
p36
aV0069086
p37
aV0073034
p38
aV0072149
p39
aV0130055
p40
aV0204484
p41
aV0066955
p42
aV0065400
p43
aV0060597
p44
aV0069483
p45
aV0068868
p46
aV0072241
p47
aV0065671
p48
aV0074423
p49
aV0062279
p50
a.(lp0
V0063169
p1
aV0072315
p2
aV0059670
p3
aV0063413
p4
aV0064212
p5
aV0061591
p6
aV0232750
p7
aV0064718
p8
aV0136440
p9
aV0064232
p10
aV0293608
p11
aV0061038
p12
aV0062807
p13
aV0068317
p14
aV0067701
p15
aV0067929
p16
aV0073208
p17
aV0062943
p18
aV0069752
p19
aV0063255
p20
aV0138795
p21
aV0063529
p22
aV0381985
p23
aV0072829
p24
aV0121431
p25
aV0200295
p26
aV0059501
p27
aV0058905
p28
aV0065957
p29
aV0146335
p30
aV0062412
p31
aV0067907
p32
aV0059345
p33
aV0083677
p34
aV0062732
p35
aV0065974
p36
aV0068994
p37
aV0059139
p38
aV0181947
p39
aV0062739
p40
aV0066212
p41
aV0069215
p42
aV0060944
p43
aV0064088
p44
aV0199680
p45
aV0069445
p46
aV0060777
p47
aV0060098
p48
aV0066494
p49
aV0058167
p50
a.(lp0
V0187732
p1
aV0135686
p2
aV0071270
p3
aV0061553
p4
aV0142431
p5
aV0069131
p6
aV0063684
p7
aV0068673
p8
aV0070960
p9
aV0061536
p10
aV0145005
p11
aV0069397
p12
aV0067133
p13
aV0072097
p14
aV0062792
p15
aV0073290
p16
aV0070332
p17
aV0063459
p18
aV0063534
p19
aV0066362
p20
aV0064800
p21
aV0123224
p22
aV0059726
p23
aV0060271
p24
aV0067530
p25
aV0059909
p26
aV0068176
p27
aV0066132
p28
aV0062205
p29
aV0064067
p30
aV0136624
p31
aV0070481
p32
aV0064037
p33
aV0062527
p34
aV0065450
p35
aV0061719
p36
aV0069665
p37
aV0071391
p38
aV0067896
p39
aV0062853
p40
aV0061879
p41
aV0059504
p42
aV0060434
p43
aV0063655
p44
aV0071634
p45
aV0073633
p46
aV0066080
p47
aV0181633
p48
aV0055612
p49
aV0246994
p50
a.(lp0
V0059032
p1
aV0065520
p2
aV0060787
p3
aV0068894
p4
aV0066466
p5
aV0174095
p6
aV0071227
p7
aV0062973
p8
aV0068193
p9
aV0451984
p10
aV0061720
p11
aV0068835
p12
aV0090928
p13
aV0175075
p14
aV0069018
p15
aV0071666
p16
aV0165906
p17
aV0074682
p18
aV0073903
p19
aV0066943
p20
aV0064063
p21
aV0071295
p22
aV0067839
p23
aV0070452
p24
aV0072131
p25
aV0124294
p26
aV0065043
p27
aV0071292
p28
aV0070079
p29
aV0064507
p30
aV0062706
p31
aV0068005
p32
aV0066017
p33
aV0063585
p34
aV0069874
p35
aV0392394
p36
aV0068559
p37
aV0232114
p38
aV0230624
p39
aV0062424
p40
aV0059258
p41
aV0073234
p42
aV0066315
p43
aV0069832
p44
aV0073735
p45
aV0070180
p46
aV0064905
p47
aV0166790
p48
aV0070445
p49
aV0067421
p50
a.(lp0
V0067897
p1
aV0064406
p2
aV0068522
p3
aV0062724
p4
aV0061916
p5
aV0261739
p6
aV0064490
p7
aV0280104
p8
aV0065700
p9
aV0069761
p10
aV0073338
p11
aV0062433
p12
aV0092905
p13
aV0059491
p14
aV0073293
p15
aV0059051
p16
aV0062852
p17
aV0144869
p18
aV0062194
p19
aV0072052
p20
aV0058770
p21
aV0069098
p22
aV0068420
p23
aV0062452
p24
aV0060109
p25
aV0252499
p26
aV2355953
p27
aV0066260
p28
aV0066273
p29
aV0071442
p30
aV0073801
p31
aV0065999
p32
aV0067016
p33
aV0356117
p34
aV0070224
p35
aV0069446
p36
aV0063341
p37
aV0060816
p38
aV0066436
p39
aV0068380
p40
aV0066240
p41
aV0136465
p42
aV0069850
p43
aV0069253
p44
aV0195209
p45
aV0063203
p46
aV0063570
p47
aV0228419
p48
aV0069249
p49
aV0068663
p50
a.(lp0
V0070706
p1
aV0167482
p2
aV0064369
p3
aV0067956
p4
aV0067705
p5
aV0073543
p6
aV1104085
p7
aV0072919
p8
aV0062768
p9
aV0058969
p10
aV0067645
p11
aV0059503
p12
aV0282004
p13
aV0061927
p14
aV0064391
p15
aV0073206
p16
aV0066401
p17
aV0060863
p18
aV0059796
p19
aV0063526
p20
aV0060853
p21
aV0072405
p22
aV0060857
p23
aV0066385
p24
aV0067280
p25
aV0072064
p26
aV0072010
p27
aV0182260
p28
aV0133689
p29
aV0068487
p30
aV0063236
p31
aV0062345
p32
aV0067237
p33
aV0291305
p34
aV0070752
p35
aV0070916
p36
aV0065184
p37
aV0136559
p38
aV0060899
p39
aV0064156
p40
aV0061432
p41
aV0138830
p42
aV0070267
p43
aV0060201
p44
aV0069362
p45
aV0073654
p46
aV0360232
p47
aV0060155
p48
aV0071554
p49
aV0063979
p50
a.(lp0
V0072019
p1
aV0067602
p2
aV0073411
p3
aV0062193
p4
aV0062787
p5
aV0075454
p6
aV0067112
p7
aV0071456
p8
aV0065693
p9
aV0068394
p10
aV0063102
p11
aV0072786
p12
aV0063268
p13
aV0203635
p14
aV0066958
p15
aV0066268
p16
aV0071167
p17
aV0070450
p18
aV0065019
p19
aV0059682
p20
aV0070887
p21
aV0059429
p22
aV0060831
p23
aV0065596
p24
aV0130633
p25
aV0071897
p26
aV0125103
p27
aV0071161
p28
aV0066960
p29
aV0064310
p30
aV0073511
p31
aV0066846
p32
aV0291478
p33
aV0072364
p34
aV0061067
p35
aV0064243
p36
aV0071398
p37
aV0070568
p38
aV0072706
p39
aV0069064
p40
aV0059028
p41
aV0064371
p42
aV0144681
p43
aV0064448
p44
aV0073103
p45
aV0181966
p46
aV0067869
p47
aV0066543
p48
aV0066167
p49
aV0071552
p50
a.