(lp0
V0111161
p1
aV0110912
p2
aV0109830
p3
aV0114369
p4
aV0102926
p5
aV0108052
p6
aV0088763
p7
aV0114814
p8
aV0103064
p9
aV0112573
p10
aV0110413
p11
aV0099685
p12
aV0105236
p13
aV0110357
p14
aV0114709
p15
aV0107290
p16
aV0095016
p17
aV0097576
p18
aV0090605
p19
aV0093058
p20
aV0114746
p21
aV0107048
p22
aV0113277
p23
aV0095953
p24
aV0099487
p25
aV0096874
p26
aV0112641
p27
aV0099785
p28
aV0101414
p29
aV0093779
p30
aV0112864
p31
aV0091763
p32
aV0099088
p33
aV0093773
p34
aV0109686
p35
aV0105695
p36
aV0097165
p37
aV0092005
p38
aV0099674
p39
aV0096895
p40
aV0099423
p41
aV0103639
p42
aV0110475
p43
aV0088847
p44
aV0111257
p45
aV0091042
p46
aV0100802
p47
aV0110148
p48
aV0107688
p49
aV0092099
p50
a.(lp0
V0094226
p1
aV0100405
p2
aV0109040
p3
aV0103776
p4
aV0113497
p5
aV0103644
p6
aV0106977
p7
aV0104431
p8
aV0112384
p9
aV0113189
p10
aV0105323
p11
aV0094721
p12
aV0112471
p13
aV0093409
p14
aV0112462
p15
aV0111503
p16
aV0099348
p17
aV0107614
p18
aV0096283
p19
aV0102057
p20
aV0093870
p21
aV0104257
p22
aV0089218
p23
aV0107818
p24
aV0109445
p25
aV0097757
p26
aV0112442
p27
aV0110632
p28
aV0108550
p29
aV0108399
p30
aV0106519
p31
aV0112281
p32
aV0095765
p33
aV0099653
p34
aV0094737
p35
aV0088846
p36
aV0098635
p37
aV0095327
p38
aV0111282
p39
aV0092890
p40
aV0103874
p41
aV0102798
p42
aV0114898
p43
aV0096438
p44
aV0099810
p45
aV0097428
p46
aV0109707
p47
aV0089927
p48
aV0112851
p49
aV0094012
p50
a.(lp0
V0090756
p1
aV0100157
p2
aV0109506
p3
aV0106856
p4
aV0103772
p5
aV0096754
p6
aV0106308
p7
aV0101540
p8
aV0097733
p9
aV0104714
p10
aV0112697
p11
aV0106697
p12
aV0106677
p13
aV0114148
p14
aV0108160
p15
aV0094898
p16
aV0091064
p17
aV0089880
p18
aV0094291
p19
aV0095705
p20
aV0102685
p21
aV0092991
p22
aV0104691
p23
aV0105793
p24
aV0107207
p25
aV0102138
p26
aV0088944
p27
aV0110322
p28
aV0093894
p29
aV0094625
p30
aV0100403
p31
aV0097523
p32
aV0097958
p33
aV0109831
p34
aV0099938
p35
aV0113247
p36
aV0095159
p37
aV0107362
p38
aV0112508
p39
aV0100150
p40
aV0103074
p41
aV0089530
p42
aV0092067
p43
aV0093822
p44
aV0097441
p45
aV0093105
p46
aV0106489
p47
aV0091203
p48
aV0101272
p49
aV0113749
p50
a.(lp0
V0108358
p1
aV0091369
p2
aV0106582
p3
aV0100507
p4
aV0101507
p5
aV0090728
p6
aV0099077
p7
aV0112431
p8
aV0093437
p9
aV0113568
p10
aV0113627
p11
aV0095956
p12
aV0093748
p13
aV0100814
p14
aV0107977
p15
aV0103855
p16
aV0092965
p17
aV0114069
p18
aV0101410
p19
aV0106918
p20
aV0113492
p21
aV0096320
p22
aV0112642
p23
aV0097351
p24
aV0092644
p25
aV0096928
p26
aV0102510
p27
aV0104952
p28
aV0110478
p29
aV0113855
p30
aV0091605
p31
aV0112740
p32
aV0112461
p33
aV0105112
p34
aV0096446
p35
aV0089881
p36
aV0104070
p37
aV0102059
p38
aV0097814
p39
aV0114388
p40
aV0113101
p41
aV0093177
p42
aV0096969
p43
aV0096256
p44
aV0110622
p45
aV0104348
p46
aV0103873
p47
aV0113118
p48
aV0099871
p49
aV0098439
p50
a.(lp0
V0102266
p1
aV0090555
p2
aV0097239
p3
aV0097742
p4
aV0107206
p5
aV0112818
p6
aV0112817
p7
aV0104694
p8
aV0114924
p9
aV0093389
p10
aV0106611
p11
aV0099700
p12
aV0109444
p13
aV0093428
p14
aV0100758
p15
aV0090264
p16
aV0114214
p17
aV0105698
p18
aV0101761
p19
aV0107144
p20
aV0111070
p21
aV0090329
p22
aV0098258
p23
aV0105417
p24
aV0095647
p25
aV0101700
p26
aV0098084
p27
aV0104797
p28
aV0110074
p29
aV0111495
p30
aV0100502
p31
aV0096061
p32
aV0108394
p33
aV0098554
p34
aV0107822
p35
aV0101889
p36
aV0097778
p37
aV0092563
p38
aV0112401
p39
aV0094862
p40
aV0100935
p41
aV0107120
p42
aV0097493
p43
aV0108525
p44
aV0095489
p45
aV0113161
p46
aV0114694
p47
aV0092007
p48
aV0099582
p49
aV0094889
p50
a.(lp0
V0105690
p1
aV0088939
p2
aV0097216
p3
aV0090305
p4
aV0099371
p5
aV0105665
p6
aV0109254
p7
aV0114508
p8
aV0111280
p9
aV0109813
p10
aV0107798
p11
aV0092675
p12
aV0113540
p13
aV0108037
p14
aV0105812
p15
aV0090863
p16
aV0088930
p17
aV0106220
p18
aV0101393
p19
aV0107808
p20
aV0091790
p21
aV0102492
p22
aV0093010
p23
aV0102975
p24
aV0113071
p25
aV0113481
p26
aV0112579
p27
aV0112682
p28
aV0101862
p29
aV0100263
p30
aV0095631
p31
aV0091326
p32
aV0113243
p33
aV0114558
p34
aV0092086
p35
aV0089755
p36
aV0110932
p37
aV0110216
p38
aV0091167
p39
aV0111301
p40
aV0106965
p41
aV0094947
p42
aV0101921
p43
aV0096734
p44
aV0104815
p45
aV0093629
p46
aV0090859
p47
aV0097937
p48
aV0095031
p49
aV0103786
p50
a.(lp0
V0103919
p1
aV0103241
p2
aV0091474
p3
aV0111255
p4
aV0095963
p5
aV0110989
p6
aV0099052
p7
aV0088993
p8
aV0114436
p9
aV0091419
p10
aV0104652
p11
aV0110005
p12
aV0101452
p13
aV0098536
p14
aV0097815
p15
aV0113957
p16
aV0107211
p17
aV0094332
p18
aV0093191
p19
aV0104231
p20
aV0112870
p21
aV0099365
p22
aV0099422
p23
aV0089469
p24
aV0107943
p25
aV0109446
p26
aV0111149
p27
aV0106387
p28
aV0111507
p29
aV0104868
p30
aV0088933
p31
aV0089686
p32
aV0091530
p33
aV0106701
p34
aV0114787
p35
aV0111438
p36
aV0113409
p37
aV0098382
p38
aV0098206
p39
aV0099329
p40
aV0091949
p41
aV0092493
p42
aV0089175
p43
aV0089670
p44
aV0105435
p45
aV0111742
p46
aV0097123
p47
aV0103939
p48
aV0102803
p49
aV0096487
p50
a.(lp0
V0102070
p1
aV0108002
p2
aV0112346
p3
aV0109424
p4
aV0105151
p5
aV0103060
p6
aV0112722
p7
aV0109836
p8
aV0093260
p9
aV0105265
p10
aV0107302
p11
aV0102536
p12
aV0096463
p13
aV0106598
p14
aV0104036
p15
aV0089885
p16
aV0096764
p17
aV0108333
p18
aV0089791
p19
aV0088680
p20
aV0112883
p21
aV0089907
p22
aV0106673
p23
aV0091129
p24
aV0089767
p25
aV0107554
p26
aV0095497
p27
aV0089370
p28
aV0089822
p29
aV0096933
p30
aV0106246
p31
aV0095174
p32
aV0101587
p33
aV0111686
p34
aV0091541
p35
aV0113117
p36
aV0090633
p37
aV0098627
p38
aV0112950
p39
aV0112792
p40
aV0097202
p41
aV0093692
p42
aV0104684
p43
aV0098621
p44
aV0108255
p45
aV0095250
p46
aV0098724
p47
aV0097659
p48
aV0109068
p49
aV0093693
p50
a.(lp0
V0109117
p1
aV0102945
p2
aV0089155
p3
aV0102494
p4
aV0098282
p5
aV0107659
p6
aV0094137
p7
aV0095742
p8
aV0109045
p9
aV0089853
p10
aV0094812
p11
aV0107616
p12
aV0090967
p13
aV0108147
p14
aV0110367
p15
aV0109635
p16
aV0100050
p17
aV0106226
p18
aV0105104
p19
aV0102511
p20
aV0104291
p21
aV0110950
p22
aV0102034
p23
aV0092610
p24
aV0093565
p25
aV0097647
p26
aV0108330
p27
aV0114781
p28
aV0111756
p29
aV0098067
p30
aV0107978
p31
aV0090142
p32
aV0107076
p33
aV0098384
p34
aV0104940
p35
aV0108122
p36
aV0090056
p37
aV0111512
p38
aV0107969
p39
aV0107050
p40
aV0114681
p41
aV0112715
p42
aV0091217
p43
aV0113198
p44
aV0110366
p45
aV0091059
p46
aV0089092
p47
aV0091149
p48
aV0109190
p49
aV0114287
p50
a.(lp0
V0106307
p1
aV0091209
p2
aV0089457
p3
aV0107131
p4
aV0091225
p5
aV0088794
p6
aV0094074
p7
aV0108238
p8
aV0097027
p9
aV0095776
p10
aV0091777
p11
aV0110997
p12
aV0093886
p13
aV0113972
p14
aV0104437
p15
aV0105046
p16
aV0103893
p17
aV0099253
p18
aV0113845
p19
aV0113824
p20
aV0093756
p21
aV0113819
p22
aV0092106
p23
aV0105477
p24
aV0105275
p25
aV0101917
p26
aV0099141
p27
aV0094963
p28
aV0093300
p29
aV0094336
p30
aV0095294
p31
aV0100258
p32
aV0106364
p33
aV0091187
p34
aV0112453
p35
aV0112896
p36
aV0089893
p37
aV0113326
p38
aV0095271
p39
aV0097981
p40
aV0098273
p41
aV0097770
p42
aV0094964
p43
aV0099044
p44
aV0104187
p45
aV0091867
p46
aV0091635
p47
aV0103759
p48
aV0113862
p49
aV0104389
p50
a.(lp0
V0114319
p1
aV0113986
p2
aV0101764
p3
aV0100404
p4
aV0101765
p5
aV0097162
p6
aV0109348
p7
aV0091251
p8
aV0095253
p9
aV0107507
p10
aV0092513
p11
aV0108071
p12
aV0109642
p13
aV0103905
p14
aV0107034
p15
aV0088850
p16
aV0093507
p17
aV0109520
p18
aV0090022
p19
aV0100477
p20
aV0090060
p21
aV0110598
p22
aV0099892
p23
aV0110167
p24
aV0114478
p25
aV0104692
p26
aV0108174
p27
aV0096787
p28
aV0107692
p29
aV0097108
p30
aV0096332
p31
aV0113041
p32
aV0091738
p33
aV0093640
p34
aV0094142
p35
aV0114906
p36
aV0091080
p37
aV0110877
p38
aV0104779
p39
aV0093777
p40
aV0105629
p41
aV0101605
p42
aV0101745
p43
aV0095675
p44
aV0114576
p45
aV0093605
p46
aV0095882
p47
aV0092925
p48
aV0097637
p49
aV0096163
p50
a.(lp0
V0103956
p1
aV0110729
p2
aV0100944
p3
aV0113670
p4
aV0097240
p5
aV0100029
p6
aV0108308
p7
aV0108500
p8
aV0110857
p9
aV0114887
p10
aV0102250
p11
aV0093818
p12
aV0114614
p13
aV0105643
p14
aV0092718
p15
aV0093148
p16
aV0094608
p17
aV0107653
p18
aV0092593
p19
aV0105414
p20
aV0102526
p21
aV0114194
p22
aV0100994
p23
aV0105121
p24
aV0108211
p25
aV0114168
p26
aV0099939
p27
aV0113987
p28
aV0089886
p29
aV0090887
p30
aV0092494
p31
aV0097388
p32
aV0099763
p33
aV0108065
p34
aV0095444
p35
aV0097474
p36
aV0102603
p37
aV0091954
p38
aV0097138
p39
aV0102768
p40
aV0114857
p41
aV0091828
p42
aV0094761
p43
aV0089173
p44
aV0091499
p45
aV0097499
p46
aV0096244
p47
aV0093936
p48
aV0106469
p49
aV0093493
p50
a.(lp0
V0106950
p1
aV0108162
p2
aV0109303
p3
aV0107501
p4
aV0101912
p5
aV0110527
p6
aV0088814
p7
aV0105415
p8
aV0110443
p9
aV0103594
p10
aV0094602
p11
aV0110638
p12
aV0100133
p13
aV0109127
p14
aV0100054
p15
aV0100419
p16
aV0096794
p17
aV0107438
p18
aV0100140
p19
aV0095179
p20
aV0098105
p21
aV0114852
p22
aV0114660
p23
aV0106770
p24
aV0099739
p25
aV0099005
p26
aV0101775
p27
aV0090685
p28
aV0101757
p29
aV0091557
p30
aV0104466
p31
aV0113870
p32
aV0090180
p33
aV0107007
p34
aV0114682
p35
aV0104454
p36
aV0101669
p37
aV0093378
p38
aV0113253
p39
aV0114011
p40
aV0092699
p41
aV0091877
p42
aV0100436
p43
aV0101640
p44
aV0111127
p45
aV0112760
p46
aV0098546
p47
aV0089941
p48
aV0104254
p49
aV0095687
p50
a.(lp0
V0101516
p1
aV0113419
p2
aV0099703
p3
aV0089560
p4
aV0104409
p5
aV0094006
p6
aV0110442
p7
aV0107843
p8
aV0103859
p9
aV0099472
p10
aV0104029
p11
aV0105488
p12
aV0113820
p13
aV0100514
p14
aV0114367
p15
aV0089869
p16
aV0089374
p17
aV0093560
p18
aV0107254
p19
aV0110006
p20
aV0110364
p21
aV0110099
p22
aV0091288
p23
aV0113501
p24
aV0106375
p25
aV0092076
p26
aV0092695
p27
aV0113228
p28
aV0089908
p29
aV0091778
p30
aV0110955
p31
aV0094894
p32
aV0108171
p33
aV0095243
p34
aV0106333
p35
aV0093137
p36
aV0097940
p37
aV0094025
p38
aV0114594
p39
aV0095690
p40
aV0110116
p41
aV0111143
p42
aV0110657
p43
aV0109456
p44
aV0097223
p45
aV0096101
p46
aV0108473
p47
aV0089841
p48
aV0107985
p49
aV0110200
p50
a.(lp0
V0099699
p1
aV0100998
p2
aV0100240
p3
aV0101026
p4
aV0094715
p5
aV0100135
p6
aV0107497
p7
aV0106332
p8
aV0099528
p9
aV0110725
p10
aV0105327
p11
aV0099334
p12
aV0111333
p13
aV0099165
p14
aV0101329
p15
aV0099726
p16
aV0098966
p17
aV0097322
p18
aV0109579
p19
aV0106881
p20
aV0104412
p21
aV0102558
p22
aV0104850
p23
aV0107387
p24
aV0091223
p25
aV0104573
p26
aV0098625
p27
aV0096071
p28
aV0107711
p29
aV0104839
p30
aV0114825
p31
aV0104452
p32
aV0112572
p33
aV0104427
p34
aV0107473
p35
aV0102614
p36
aV0088889
p37
aV0090021
p38
aV0100519
p39
aV0110265
p40
aV0097368
p41
aV0107665
p42
aV0107151
p43
aV0109555
p44
aV0112913
p45
aV0092666
p46
aV0102719
p47
aV0103924
p48
aV0091480
p49
aV0104009
p50
a.(lp0
V0101635
p1
aV0100685
p2
aV0111693
p3
aV0114608
p4
aV0087909
p5
aV0112688
p6
aV0098141
p7
aV0093223
p8
aV0104756
p9
aV0106912
p10
aV0089017
p11
aV0108149
p12
aV0103596
p13
aV0110763
p14
aV0092796
p15
aV0097257
p16
aV0110027
p17
aV0110308
p18
aV0095270
p19
aV0109592
p20
aV0103112
p21
aV0089489
p22
aV0101829
p23
aV0092263
p24
aV0100449
p25
aV0105226
p26
aV0109676
p27
aV0110737
p28
aV0103247
p29
aV0097858
p30
aV0110678
p31
aV0099615
p32
aV0091083
p33
aV0104561
p34
aV0090103
p35
aV0108185
p36
aV0110008
p37
aV0097366
p38
aV0100212
p39
aV0104990
p40
aV0112819
p41
aV0095188
p42
aV0102943
p43
aV0091886
p44
aV0100114
p45
aV0091670
p46
aV0102744
p47
aV0110978
p48
aV0113442
p49
aV0104040
p50
a.(lp0
V0101316
p1
aV0104558
p2
aV0105428
p3
aV0109439
p4
aV0091630
p5
aV0090357
p6
aV0110613
p7
aV0095082
p8
aV0089114
p9
aV0090927
p10
aV0110684
p11
aV0102587
p12
aV0089013
p13
aV0091306
p14
aV0089606
p15
aV0100260
p16
aV0113305
p17
aV0097481
p18
aV0092618
p19
aV0102005
p20
aV0102004
p21
aV0093407
p22
aV0097722
p23
aV0095925
p24
aV0109287
p25
aV0096251
p26
aV0109759
p27
aV0109402
p28
aV0106400
p29
aV0102782
p30
aV0098987
p31
aV0104438
p32
aV0100318
p33
aV0099558
p34
aV0113552
p35
aV0098253
p36
aV0095990
p37
aV0109890
p38
aV0111797
p39
aV0103285
p40
aV0092603
p41
aV0095519
p42
aV0105156
p43
aV0110971
p44
aV0097965
p45
aV0103994
p46
aV0090563
p47
aV0089118
p48
aV0101698
p49
aV0105128
p50
a.(lp0
V0108188
p1
aV0108186
p2
aV0112966
p3
aV0110963
p4
aV0112857
p5
aV0109370
p6
aV0102175
p7
aV0110076
p8
aV0106452
p9
aV0108551
p10
aV0108101
p11
aV0097737
p12
aV0095889
p13
aV0099850
p14
aV0110213
p15
aV0095467
p16
aV0105378
p17
aV0110222
p18
aV0094072
p19
aV0108265
p20
aV0095800
p21
aV0091431
p22
aV0108148
p23
aV0107091
p24
aV0095897
p25
aV0113114
p26
aV0097443
p27
aV0089153
p28
aV0112922
p29
aV0093185
p30
aV0100232
p31
aV0099385
p32
aV0090966
p33
aV0113677
p34
aV0098309
p35
aV0109951
p36
aV0102789
p37
aV0100485
p38
aV0097457
p39
aV0102915
p40
aV0098645
p41
aV0102713
p42
aV0095593
p43
aV0102216
p44
aV0101969
p45
aV0095655
p46
aV0101258
p47
aV0104237
p48
aV0094027
p49
aV0107426
p50
a.(lp0
V0104114
p1
aV0110631
p2
aV0107282
p3
aV0094606
p4
aV0091983
p5
aV0110907
p6
aV0094824
p7
aV0107286
p8
aV0104549
p9
aV0094890
p10
aV0095403
p11
aV0102388
p12
aV0104299
p13
aV0106627
p14
aV0110428
p15
aV0100395
p16
aV0091860
p17
aV0107478
p18
aV0089695
p19
aV0113613
p20
aV0106664
p21
aV0114345
p22
aV0099776
p23
aV0110081
p24
aV0089543
p25
aV0094746
p26
aV0101787
p27
aV0113799
p28
aV0090830
p29
aV0095468
p30
aV0096316
p31
aV0111419
p32
aV0098622
p33
aV0102951
p34
aV0090583
p35
aV0114279
p36
aV0100530
p37
aV0098320
p38
aV0091445
p39
aV0102316
p40
aV0094631
p41
aV0100486
p42
aV0112887
p43
aV0103850
p44
aV0105585
p45
aV0106453
p46
aV0100740
p47
aV0111579
p48
aV0110882
p49
aV0105699
p50
a.(lp0
V0110687
p1
aV0113690
p2
aV0090095
p3
aV0089424
p4
aV0099819
p5
aV0093512
p6
aV0106292
p7
aV0111732
p8
aV0091680
p9
aV0090670
p10
aV0107156
p11
aV0091993
p12
aV0092240
p13
aV0097289
p14
aV0104265
p15
aV0096945
p16
aV0109035
p17
aV0111418
p18
aV0090350
p19
aV0090655
p20
aV0107983
p21
aV0102426
p22
aV0093857
p23
aV0091578
p24
aV0107096
p25
aV0090888
p26
aV0099204
p27
aV0108526
p28
aV0093075
p29
aV0111400
p30
aV0092605
p31
aV0099012
p32
aV0091278
p33
aV0114702
p34
aV0098663
p35
aV0112744
p36
aV0096018
p37
aV0088708
p38
aV0110771
p39
aV0096073
p40
aV0114496
p41
aV0107953
p42
aV0089360
p43
aV0102343
p44
aV0108539
p45
aV0096870
p46
aV0090098
p47
aV0094919
p48
aV0109936
p49
aV0110759
p50
a.(lp0
V0105217
p1
aV0105211
p2
aV0089003
p3
aV0103030
p4
aV0109688
p5
aV0108451
p6
aV0089393
p7
aV0099762
p8
aV0098575
p9
aV0111667
p10
aV0095583
p11
aV0094663
p12
aV0107756
p13
aV0092048
p14
aV0089730
p15
aV0097235
p16
aV0091538
p17
aV0093677
p18
aV0096219
p19
aV0113010
p20
aV0095863
p21
aV0092804
p22
aV0090248
p23
aV0111477
p24
aV0099994
p25
aV0115819
p26
aV0109484
p27
aV0110123
p28
aV0102293
p29
aV0099740
p30
aV0089421
p31
aV0104695
p32
aV0113526
p33
aV0092272
p34
aV0103793
p35
aV0095348
p36
aV0098577
p37
aV0099180
p38
aV0201368
p39
aV0102555
p40
aV0104181
p41
aV0093209
p42
aV0109842
p43
aV0111001
p44
aV0092214
p45
aV0095801
p46
aV0096913
p47
aV0106341
p48
aV0109198
p49
aV0112571
p50
a.(lp0
V0110093
p1
aV0109305
p2
aV0097328
p3
aV0089461
p4
aV0088979
p5
aV0107315
p6
aV0101453
p7
aV0106471
p8
aV0101786
p9
aV0104545
p10
aV0100234
p11
aV0092654
p12
aV0106941
p13
aV0100201
p14
aV0091799
p15
aV0112750
p16
aV0091159
p17
aV0113097
p18
aV0096098
p19
aV0094035
p20
aV0110516
p21
aV0099160
p22
aV0093624
p23
aV0113451
p24
aV0107840
p25
aV0095088
p26
aV0090852
p27
aV0094739
p28
aV0094747
p29
aV0096094
p30
aV0100934
p31
aV0090094
p32
aV0113321
p33
aV0101318
p34
aV0092974
p35
aV0093603
p36
aV0093578
p37
aV0114323
p38
aV0100594
p39
aV0098327
p40
aV0091341
p41
aV0091875
p42
aV0098097
p43
aV0089901
p44
aV0089961
p45
aV0105399
p46
aV0100928
p47
aV0099800
p48
aV0110612
p49
aV0103923
p50
a.(lp0
V0095715
p1
aV0106761
p2
aV0097050
p3
aV0098471
p4
aV0107630
p5
aV0113347
p6
aV0101821
p7
aV0093278
p8
aV0100828
p9
aV0097044
p10
aV0105459
p11
aV0090660
p12
aV0105130
p13
aV0097390
p14
aV0100168
p15
aV0094138
p16
aV0091495
p17
aV0101627
p18
aV0093793
p19
aV0094118
p20
aV0087231
p21
aV0110647
p22
aV0110169
p23
aV0111323
p24
aV0089280
p25
aV0109327
p26
aV0092546
p27
aV0097758
p28
aV0105017
p29
aV0111201
p30
aV0102517
p31
aV0105466
p32
aV0096426
p33
aV0104926
p34
aV0110889
p35
aV0099797
p36
aV0110538
p37
aV0098360
p38
aV0095107
p39
aV0095652
p40
aV0102598
p41
aV0099426
p42
aV0102164
p43
aV0114671
p44
aV0104647
p45
aV0113083
p46
aV0093412
p47
aV0089208
p48
aV0094933
p49
aV0091396
p50
a.(lp0
V0089346
p1
aV0090667
p2
aV0105636
p3
aV0102181
p4
aV0093713
p5
aV0108281
p6
aV0110363
p7
aV0093220
p8
aV0099817
p9
aV0110570
p10
aV0098354
p11
aV0112302
p12
aV0112553
p13
aV0094321
p14
aV0112625
p15
aV0094612
p16
aV0103003
p17
aV0112757
p18
aV0102592
p19
aV0103747
p20
aV0112541
p21
aV0179955
p22
aV0100095
p23
aV0101420
p24
aV0095560
p25
aV0093036
p26
aV0102303
p27
aV0095936
p28
aV0114057
p29
aV0105159
p30
aV0114885
p31
aV0114272
p32
aV0088915
p33
aV0107612
p34
aV0098519
p35
aV0089087
p36
aV0101615
p37
aV0103791
p38
aV0103950
p39
aV0095488
p40
aV0105391
p41
aV0107889
p42
aV0104507
p43
aV0090315
p44
aV0094008
p45
aV0096454
p46
aV0104511
p47
aV0094744
p48
aV0109279
p49
aV0105271
p50
a.(lp0
V0100142
p1
aV0099512
p2
aV0096118
p3
aV0106500
p4
aV0109067
p5
aV0105839
p6
aV0109369
p7
aV0110917
p8
aV0094716
p9
aV0103130
p10
aV0105682
p11
aV0096380
p12
aV0097179
p13
aV0094357
p14
aV0096486
p15
aV0097967
p16
aV0106266
p17
aV0094924
p18
aV0093940
p19
aV0101545
p20
aV0092115
p21
aV0112769
p22
aV0099697
p23
aV0093044
p24
aV0091188
p25
aV0092534
p26
aV0112499
p27
aV0094082
p28
aV0107529
p29
aV0105616
p30
aV0097626
p31
aV0100112
p32
aV0113537
p33
aV0106613
p34
aV0102443
p35
aV0093405
p36
aV0114048
p37
aV0112679
p38
aV0093780
p39
aV0101458
p40
aV0111003
p41
aV0093978
p42
aV0101846
p43
aV0102469
p44
aV0102116
p45
aV0107468
p46
aV0092746
p47
aV0102460
p48
aV0089748
p49
aV0109361
p50
a.(lp0
V0104670
p1
aV0109015
p2
aV0107004
p3
aV0096028
p4
aV0107927
p5
aV0104073
p6
aV0142236
p7
aV0112379
p8
aV0089470
p9
aV0103016
p10
aV0090274
p11
aV0104346
p12
aV0092501
p13
aV0142242
p14
aV0090738
p15
aV0184756
p16
aV0112288
p17
aV0109288
p18
aV0113755
p19
aV0090930
p20
aV0092906
p21
aV0094155
p22
aV0098051
p23
aV0095304
p24
aV0095927
p25
aV0101748
p26
aV0098180
p27
aV0102609
p28
aV0113762
p29
aV0097889
p30
aV0105165
p31
aV0090837
p32
aV0100475
p33
aV0111341
p34
aV0100024
p35
aV0099611
p36
aV0093277
p37
aV0102900
p38
aV0109297
p39
aV0089348
p40
aV0105219
p41
aV0094057
p42
aV0094793
p43
aV0105402
p44
aV0103239
p45
aV0088748
p46
aV0110329
p47
aV0098532
p48
aV0114234
p49
aV0098437
p50
a.(lp0
V0102820
p1
aV0114126
p2
aV0102802
p3
aV0106223
p4
aV0098453
p5
aV0114563
p6
aV0108258
p7
aV0092857
p8
aV0094712
p9
aV0093608
p10
aV0107617
p11
aV0092929
p12
aV0109493
p13
aV0112585
p14
aV0090985
p15
aV0100280
p16
aV0090270
p17
aV0099654
p18
aV0091757
p19
aV0113500
p20
aV0101984
p21
aV0092548
p22
aV0109504
p23
aV0108442
p24
aV0103035
p25
aV0100143
p26
aV0089826
p27
aV0090849
p28
aV0089126
p29
aV0089839
p30
aV0110823
p31
aV0096461
p32
aV0104627
p33
aV0110146
p34
aV0091991
p35
aV0104860
p36
aV0106936
p37
aV0106834
p38
aV0099951
p39
aV0093342
p40
aV0100224
p41
aV0103129
p42
aV0109891
p43
aV0103671
p44
aV0101701
p45
aV0109440
p46
aV0111112
p47
aV0093072
p48
aV0106557
p49
aV0107209
p50
a.(lp0
V0107322
p1
aV0090570
p2
aV0093206
p3
aV0098999
p4
aV0109450
p5
aV0093509
p6
aV0103251
p7
aV0097635
p8
aV0099902
p9
aV0094799
p10
aV0089604
p11
aV0099731
p12
aV0110157
p13
aV0093690
p14
aV0108327
p15
aV0110365
p16
aV0099091
p17
aV0099747
p18
aV0104107
p19
aV0173102
p20
aV0104782
p21
aV0096149
p22
aV0107611
p23
aV0097790
p24
aV0097500
p25
aV0092843
p26
aV0105813
p27
aV0095989
p28
aV0100680
p29
aV0104897
p30
aV0110546
p31
aV0091142
p32
aV0096289
p33
aV0089603
p34
aV0109447
p35
aV0109758
p36
aV0088683
p37
aV0106873
p38
aV0097336
p39
aV0109382
p40
aV0104740
p41
aV0084549
p42
aV0104605
p43
aV0104006
p44
aV0089222
p45
aV0112368
p46
aV0096842
p47
aV0094888
p48
aV0089276
p49
aV0142243
p50
a.(lp0
V0093015
p1
aV0091276
p2
aV0101523
p3
aV0098319
p4
aV0099409
p5
aV0114916
p6
aV0097438
p7
aV0109306
p8
aV0101465
p9
aV0089504
p10
aV0090319
p11
aV0107563
p12
aV0091060
p13
aV0102178
p14
aV0109415
p15
aV0102729
p16
aV0100211
p17
aV0094651
p18
aV0113729
p19
aV0113089
p20
aV0092105
p21
aV0091637
p22
aV0109120
p23
aV0110353
p24
aV0102095
p25
aV0109480
p26
aV0099399
p27
aV0102984
p28
aV0096119
p29
aV0091178
p30
aV0097728
p31
aV0090713
p32
aV0101590
p33
aV0113965
p34
aV0113269
p35
aV0094750
p36
aV0101649
p37
aV0139876
p38
aV0103110
p39
aV0106233
p40
aV0089913
p41
aV0097613
p42
aV0109771
p43
aV0108592
p44
aV0113303
p45
aV0095379
p46
aV0099040
p47
aV0111252
p48
aV0091374
p49
aV0102721
p50
a.(lp0
V0110557
p1
aV0101811
p2
aV0088936
p3
aV0102722
p4
aV0090848
p5
aV0091653
p6
aV0109162
p7
aV0093737
p8
aV0090917
p9
aV0113703
p10
aV0095638
p11
aV0101628
p12
aV0099729
p13
aV0094678
p14
aV0109578
p15
aV0090196
p16
aV0114938
p17
aV0102011
p18
aV0090366
p19
aV0101694
p20
aV0100469
p21
aV0103805
p22
aV0111094
p23
aV0094828
p24
aV0112445
p25
aV0097883
p26
aV0097236
p27
aV0101991
p28
aV0099669
p29
aV0104053
p30
aV0109723
p31
aV0142233
p32
aV0142371
p33
aV0099587
p34
aV0089981
p35
aV0263065
p36
aV0089960
p37
aV0095484
p38
aV0094764
p39
aV0101428
p40
aV0113375
p41
aV0091939
p42
aV0094961
p43
aV0109255
p44
aV0099277
p45
aV0113464
p46
aV0113362
p47
aV0097579
p48
aV0099073
p49
aV0090856
p50
a.(lp0
V0106339
p1
aV0114609
p2
aV0101898
p3
aV0099575
p4
aV0098503
p5
aV0096054
p6
aV0095409
p7
aV0089308
p8
aV0102048
p9
aV0109020
p10
aV0093660
p11
aV0097987
p12
aV0091554
p13
aV0092576
p14
aV0089591
p15
aV0094860
p16
aV0098068
p17
aV0114863
p18
aV0109838
p19
aV0098967
p20
aV0092997
p21
aV0142237
p22
aV0102395
p23
aV0092632
p24
aV0108395
p25
aV0097904
p26
aV0101020
p27
aV0088707
p28
aV0094884
p29
aV0113936
p30
aV0091497
p31
aV0113538
p32
aV0106455
p33
aV0097714
p34
aV0112602
p35
aV0109219
p36
aV0093170
p37
aV0093418
p38
aV0109403
p39
aV0093435
p40
aV0109093
p41
aV0114732
p42
aV0095654
p43
aV0093776
p44
aV0097607
p45
aV0114086
p46
aV0091055
p47
aV0110066
p48
aV0107413
p49
aV0096288
p50
a.(lp0
V0126871
p1
aV0090327
p2
aV0113691
p3
aV0126234
p4
aV0100827
p5
aV0109134
p6
aV0104139
p7
aV0098573
p8
aV0094792
p9
aV0102800
p10
aV0092690
p11
aV0112637
p12
aV0091093
p13
aV0102825
p14
aV0110604
p15
aV0101531
p16
aV0091472
p17
aV0090768
p18
aV0099566
p19
aV0090115
p20
aV0110054
p21
aV0100107
p22
aV0102202
p23
aV0114996
p24
aV0097531
p25
aV0094731
p26
aV0098061
p27
aV0112435
p28
aV0092112
p29
aV0092226
p30
aV0111309
p31
aV0110438
p32
aV0092074
p33
aV0091830
p34
aV0106966
p35
aV0103105
p36
aV0089643
p37
aV0100049
p38
aV0142241
p39
aV0108656
p40
aV0107750
p41
aV0112255
p42
aV0109417
p43
aV0092637
p44
aV0094675
p45
aV0112778
p46
aV0106579
p47
aV0097100
p48
aV0107664
p49
aV0104802
p50
a.(lp0
V0105107
p1
aV0106393
p2
aV0115012
p3
aV0113448
p4
aV0102411
p5
aV0101902
p6
aV0111194
p7
aV0113720
p8
aV1125254
p9
aV0106309
p10
aV0111190
p11
aV0088885
p12
aV0105197
p13
aV0103007
p14
aV0111019
p15
aV0088967
p16
aV0097731
p17
aV0092752
p18
aV0089652
p19
aV0094318
p20
aV0091344
p21
aV0107212
p22
aV0093543
p23
aV0093974
p24
aV0099818
p25
aV0089601
p26
aV0103978
p27
aV0091934
p28
aV0112495
p29
aV0094077
p30
aV0111256
p31
aV0102757
p32
aV0107166
p33
aV0110399
p34
aV0101746
p35
aV0113153
p36
aV0096324
p37
aV0098692
p38
aV0093073
p39
aV0106926
p40
aV0142240
p41
aV0111048
p42
aV0112606
p43
aV0093668
p44
aV0100912
p45
aV0108517
p46
aV0105602
p47
aV0100442
p48
aV0103125
p49
aV0113617
p50
a.(lp0
V0111845
p1
aV0114928
p2
aV0095382
p3
aV0103976
p4
aV0111835
p5
aV0111653
p6
aV0102849
p7
aV0099581
p8
aV0110305
p9
aV0103184
p10
aV0089385
p11
aV0107745
p12
aV0095532
p13
aV0095662
p14
aV0102456
p15
aV0102753
p16
aV0114808
p17
aV0112365
p18
aV0103262
p19
aV0108187
p20
aV0107474
p21
aV0102103
p22
aV0110944
p23
aV0092972
p24
aV0090798
p25
aV0090735
p26
aV0096926
p27
aV0112767
p28
aV0109021
p29
aV0102220
p30
aV0101962
p31
aV0100911
p32
aV0096804
p33
aV0091817
p34
aV0090557
p35
aV0109376
p36
aV0099266
p37
aV0106215
p38
aV0214915
p39
aV0109962
p40
aV0104928
p41
aV0113149
p42
aV0113360
p43
aV0102307
p44
aV0107668
p45
aV0093207
p46
aV0098260
p47
aV0099710
p48
aV0094910
p49
aV0089108
p50
a.(lp0
V0103704
p1
aV0102898
p2
aV0110391
p3
aV0102629
p4
aV0091969
p5
aV0105001
p6
aV0111293
p7
aV0098436
p8
aV0102797
p9
aV0102065
p10
aV0113187
p11
aV0097142
p12
aV0099878
p13
aV0101988
p14
aV0092147
p15
aV0093966
p16
aV0099429
p17
aV0107057
p18
aV0092117
p19
aV0110667
p20
aV0101985
p21
aV0097243
p22
aV0100842
p23
aV0095475
p24
aV0091113
p25
aV0106535
p26
aV0094033
p27
aV0108504
p28
aV0113280
p29
aV0090567
p30
aV0111793
p31
aV0097910
p32
aV0110588
p33
aV0105450
p34
aV0114095
p35
aV0100053
p36
aV0109770
p37
aV0104279
p38
aV0113416
p39
aV0094597
p40
aV0097880
p41
aV0112438
p42
aV0104155
p43
aV0092641
p44
aV0089994
p45
aV0208502
p46
aV0107002
p47
aV0114317
p48
aV0093771
p49
aV0106305
p50
a.(lp0
V0142238
p1
aV0091814
p2
aV0093227
p3
aV0097444
p4
aV0097116
p5
aV0089798
p6
aV0107626
p7
aV0142244
p8
aV0104905
p9
aV0096171
p10
aV0101326
p11
aV0100339
p12
aV0105750
p13
aV0089177
p14
aV0112313
p15
aV0098524
p16
aV0097244
p17
aV0111590
p18
aV0092627
p19
aV0099316
p20
aV0109206
p21
aV0102590
p22
aV0093171
p23
aV0098019
p24
aV0094593
p25
aV0094886
p26
aV0090568
p27
aV0105411
p28
aV0114108
p29
aV0097662
p30
aV0113947
p31
aV0110361
p32
aV0113188
p33
aV0105916
p34
aV0098502
p35
aV0091575
p36
aV0108207
p37
aV0101301
p38
aV0103872
p39
aV0106937
p40
aV0098115
p41
aV0089015
p42
aV0106880
p43
aV0096022
p44
aV0096046
p45
aV0110395
p46
aV0107247
p47
aV0093744
p48
aV0106379
p49
aV0102397
p50
a.(lp0
V0092710
p1
aV0111666
p2
aV0103295
p3
aV0096511
p4
aV0097136
p5
aV0096223
p6
aV0090110
p7
aV0093091
p8
aV0114658
p9
aV0107863
p10
aV0114437
p11
aV0099108
p12
aV0094315
p13
aV0099292
p14
aV0106257
p15
aV0093132
p16
aV0092783
p17
aV0091981
p18
aV0089264
p19
aV0107920
p20
aV0103783
p21
aV0092149
p22
aV0105851
p23
aV0093176
p24
aV0096425
p25
aV0106335
p26
aV0107079
p27
aV0100665
p28
aV0111543
p29
aV0113828
p30
aV0112342
p31
aV0107594
p32
aV0096193
p33
aV0089265
p34
aV0098343
p35
aV0090130
p36
aV0100491
p37
aV0094293
p38
aV0105792
p39
aV0109665
p40
aV0098308
p41
aV0106466
p42
aV0109731
p43
aV0100602
p44
aV0104046
p45
aV0099018
p46
aV0093638
p47
aV0116506
p48
aV0094846
p49
aV0090197
p50
a.(lp0
V0102579
p1
aV0108410
p2
aV0109443
p3
aV0094667
p4
aV0093596
p5
aV0105569
p6
aV0101492
p7
aV0095169
p8
aV0107504
p9
aV0090203
p10
aV0096386
p11
aV0102593
p12
aV0113896
p13
aV0090217
p14
aV0108328
p15
aV0100369
p16
aV0097458
p17
aV0110490
p18
aV0104567
p19
aV0106521
p20
aV0098300
p21
aV0113133
p22
aV0359715
p23
aV0095302
p24
aV0091829
p25
aV0104352
p26
aV0106544
p27
aV0094594
p28
aV0115033
p29
aV0095525
p30
aV0108252
p31
aV0091427
p32
aV0108289
p33
aV0096943
p34
aV0101625
p35
aV0107027
p36
aV0111187
p37
aV0089847
p38
aV0113211
p39
aV0114099
p40
aV0089243
p41
aV0089629
p42
aV0116422
p43
aV0104765
p44
aV0113851
p45
aV0099612
p46
aV0096336
p47
aV0090886
p48
aV0093828
p49
aV0099652
p50
a.(lp0
V0112702
p1
aV0101733
p2
aV0090213
p3
aV0105191
p4
aV0096908
p5
aV0102368
p6
aV0092532
p7
aV0109575
p8
aV0100873
p9
aV0098193
p10
aV0098090
p11
aV0106660
p12
aV0095871
p13
aV0105575
p14
aV0092669
p15
aV0105859
p16
aV0102369
p17
aV0142239
p18
aV0091647
p19
aV0114231
p20
aV0095904
p21
aV0093200
p22
aV0089572
p23
aV0103186
p24
aV0103176
p25
aV0099128
p26
aV0093995
p27
aV0095869
p28
aV0096037
p29
aV0091214
p30
aV0090257
p31
aV0142234
p32
aV0124770
p33
aV0089537
p34
aV0109916
p35
aV0111807
p36
aV0106868
p37
aV0109906
p38
aV0104418
p39
aV0105483
p40
aV0094921
p41
aV0101356
p42
aV0109781
p43
aV0114055
p44
aV0100196
p45
aV0101004
p46
aV0104008
p47
aV0102288
p48
aV0096180
p49
aV0110939
p50
a.(lp0
V0114753
p1
aV0113725
p2
aV0092549
p3
aV0112873
p4
aV0103253
p5
aV0109791
p6
aV0102351
p7
aV0101891
p8
aV0104321
p9
aV0089753
p10
aV0097125
p11
aV0109321
p12
aV0105481
p13
aV0100631
p14
aV0109959
p15
aV0102655
p16
aV0099484
p17
aV0096378
p18
aV0107009
p19
aV0086961
p20
aV0090206
p21
aV0108339
p22
aV0110186
p23
aV0099578
p24
aV0093996
p25
aV0102045
p26
aV0087258
p27
aV0111359
p28
aV0105652
p29
aV0113808
p30
aV0100681
p31
aV0092085
p32
aV0106753
p33
aV0096203
p34
aV0114798
p35
aV0099768
p36
aV0104662
p37
aV0145529
p38
aV0104812
p39
aV0099173
p40
aV0093476
p41
aV0113081
p42
aV0095657
p43
aV0105888
p44
aV0105187
p45
aV0100046
p46
aV0109010
p47
aV0094819
p48
aV0263211
p49
aV0112389
p50
a.(lp0
V0170783
p1
aV0093215
p2
aV0109798
p3
aV0100666
p4
aV0111640
p5
aV0101373
p6
aV0237376
p7
aV0100747
p8
aV0104743
p9
aV0090342
p10
aV0102421
p11
aV0107613
p12
aV0111786
p13
aV0110255
p14
aV0108624
p15
aV0101273
p16
aV0096875
p17
aV0094407
p18
aV0102690
p19
aV0105691
p20
aV0091859
p21
aV0114788
p22
aV0090774
p23
aV0102522
p24
aV0097166
p25
aV0111205
p26
aV0110197
p27
aV0090576
p28
aV0102687
p29
aV0093467
p30
aV0088760
p31
aV0111800
p32
aV0105619
p33
aV0098994
p34
aV0091024
p35
aV0105185
p36
aV0095684
p37
aV0105242
p38
aV0095326
p39
aV0108593
p40
aV0095709
p41
aV0105328
p42
aV0110064
p43
aV0092842
p44
aV0092225
p45
aV0090585
p46
aV0113074
p47
aV0251355
p48
aV0096409
p49
aV0092550
p50
a.(lp0
V0106342
p1
aV0096259
p2
aV0092732
p3
aV0109965
p4
aV0093011
p5
aV0097106
p6
aV0093855
p7
aV0099812
p8
aV0104808
p9
aV0103670
p10
aV0092297
p11
aV0088960
p12
aV0114697
p13
aV0098369
p14
aV0099750
p15
aV0095296
p16
aV0109340
p17
aV0095599
p18
aV0100625
p19
aV0098725
p20
aV0095037
p21
aV0097001
p22
aV0101371
p23
aV0110620
p24
aV0097527
p25
aV0103002
p26
aV0098188
p27
aV0093029
p28
aV0093186
p29
aV0090644
p30
aV0098194
p31
aV0104014
p32
aV0088961
p33
aV0094701
p34
aV0107606
p35
aV0089371
p36
aV0097636
p37
aV0093833
p38
aV0100963
p39
aV0095119
p40
aV0104804
p41
aV0110296
p42
aV0108596
p43
aV0112800
p44
aV0108311
p45
aV0092133
p46
aV0113463
p47
aV0103743
p48
aV0089343
p49
aV0109066
p50
a.(lp0
V0113158
p1
aV0103045
p2
aV0101595
p3
aV0105810
p4
aV0116247
p5
aV0088931
p6
aV0095145
p7
aV0094669
p8
aV0092615
p9
aV0111403
p10
aV0263743
p11
aV0106779
p12
aV0110722
p13
aV0112366
p14
aV0102050
p15
aV0102940
p16
aV0093175
p17
aV0102813
p18
aV0102636
p19
aV0107101
p20
aV0104609
p21
aV0313573
p22
aV0100151
p23
aV0107214
p24
aV0098691
p25
aV0252486
p26
aV0101412
p27
aV0098385
p28
aV0094642
p29
aV0285665
p30
aV0110689
p31
aV0089366
p32
aV0089523
p33
aV0092798
p34
aV0104770
p35
aV0087650
p36
aV0106877
p37
aV0094962
p38
aV0291855
p39
aV0100200
p40
aV0106315
p41
aV0092744
p42
aV0093664
p43
aV0103617
p44
aV0088851
p45
aV0095050
p46
aV0103962
p47
aV0102958
p48
aV0114690
p49
aV0090881
p50
a.(lp0
V0112443
p1
aV0097694
p2
aV0107130
p3
aV0100301
p4
aV0106684
p5
aV0103773
p6
aV0107165
p7
aV0097570
p8
aV0101455
p9
aV0112895
p10
aV0114571
p11
aV0102631
p12
aV0105789
p13
aV0098356
p14
aV0090601
p15
aV0158610
p16
aV0252592
p17
aV0100087
p18
aV0098063
p19
aV0110922
p20
aV0091314
p21
aV0093146
p22
aV0113967
p23
aV0091725
p24
aV0109514
p25
aV0092608
p26
aV0106866
p27
aV0087020
p28
aV0104522
p29
aV0093854
p30
aV0099637
p31
aV0089731
p32
aV0114663
p33
aV0337611
p34
aV0112619
p35
aV0292246
p36
aV0104350
p37
aV0447484
p38
aV0107148
p39
aV0092035
p40
aV0101597
p41
aV0105019
p42
aV0090693
p43
aV0112556
p44
aV0107321
p45
aV0110201
p46
aV0097334
p47
aV0097911
p48
aV0091786
p49
aV0112427
p50
a.(lp0
V0140377
p1
aV0214585
p2
aV0089283
p3
aV0097262
p4
aV0105622
p5
aV0089816
p6
aV0107447
p7
aV0099026
p8
aV0092585
p9
aV0090729
p10
aV0112537
p11
aV0092638
p12
aV0111218
p13
aV0092580
p14
aV0111173
p15
aV0102848
p16
aV0102465
p17
aV0110189
p18
aV0117284
p19
aV0111573
p20
aV0103935
p21
aV0094331
p22
aV0094641
p23
aV0106655
p24
aV0094868
p25
aV0117609
p26
aV0110892
p27
aV0099291
p28
aV0109783
p29
aV0252562
p30
aV0110524
p31
aV0089716
p32
aV0098156
p33
aV0106913
p34
aV0110097
p35
aV0107443
p36
aV0102500
p37
aV0107311
p38
aV0108633
p39
aV0113028
p40
aV0095736
p41
aV0094317
p42
aV0110832
p43
aV0109000
p44
aV0107358
p45
aV0092834
p46
aV0102818
p47
aV0091164
p48
aV0101252
p49
aV0107685
p50
a.(lp0
V0103827
p1
aV0095774
p2
aV0104283
p3
aV0108000
p4
aV0097670
p5
aV0102571
p6
aV0104745
p7
aV0100557
p8
aV0108366
p9
aV0108317
p10
aV0097775
p11
aV0115067
p12
aV0105824
p13
aV0091584
p14
aV0098520
p15
aV0094011
p16
aV0090770
p17
aV0100611
p18
aV0091069
p19
aV0095312
p20
aV0108053
p21
aV0093415
p22
aV0113403
p23
aV0104663
p24
aV0094056
p25
aV0099656
p26
aV0095975
p27
aV0104362
p28
aV0113142
p29
aV0093477
p30
aV0099816
p31
aV0090215
p32
aV0091415
p33
aV0102258
p34
aV0096087
p35
aV0117193
p36
aV0100134
p37
aV0282778
p38
aV0097557
p39
aV0104028
p40
aV0103069
p41
aV0097884
p42
aV0104119
p43
aV0103190
p44
aV0252364
p45
aV0091559
p46
aV0096142
p47
aV0102860
p48
aV0104503
p49
aV0113194
p50
a.(lp0
V0109920
p1
aV0104581
p2
aV0088987
p3
aV0088678
p4
aV0253790
p5
aV0092558
p6
aV0108026
p7
aV0122768
p8
aV0095730
p9
aV0100161
p10
aV0106447
p11
aV0103969
p12
aV0093516
p13
aV0092068
p14
aV0100691
p15
aV0102071
p16
aV0092745
p17
aV0101798
p18
aV0101606
p19
aV0109099
p20
aV0097314
p21
aV0106559
p22
aV0114726
p23
aV0091364
p24
aV0098350
p25
aV0103303
p26
aV0252465
p27
aV0098328
p28
aV0109683
p29
aV0104753
p30
aV0113580
p31
aV0094834
p32
aV0112854
p33
aV0107875
p34
aV0093483
p35
aV0095389
p36
aV0109374
p37
aV0114084
p38
aV0253738
p39
aV0091544
p40
aV0101763
p41
aV0252360
p42
aV0095993
p43
aV0096827
p44
aV0140348
p45
aV0090297
p46
aV0099310
p47
aV0114306
p48
aV0249188
p49
aV0099450
p50
a.(lp0
V0094048
p1
aV0089902
p2
aV0091990
p3
aV0100303
p4
aV0102932
p5
aV0105032
p6
aV0093267
p7
aV0106505
p8
aV0172519
p9
aV0102703
p10
aV0113849
p11
aV0101588
p12
aV0109412
p13
aV0114941
p14
aV0107623
p15
aV0253615
p16
aV0107999
p17
aV0093648
p18
aV0106693
p19
aV0109739
p20
aV0113376
p21
aV0113542
p22
aV0090579
p23
aV0089284
p24
aV0099733
p25
aV0104774
p26
aV0108388
p27
aV0101268
p28
aV0104837
p29
aV0101317
p30
aV0097534
p31
aV0090915
p32
aV0095316
p33
aV0106330
p34
aV0105790
p35
aV0109129
p36
aV0114113
p37
aV0089160
p38
aV0113971
p39
aV0097211
p40
aV0097373
p41
aV0185481
p42
aV0093969
p43
aV0103927
p44
aV0167147
p45
aV0090556
p46
aV0095452
p47
aV0095333
p48
aV0090151
p49
aV0140399
p50
a.(lp0
V0096966
p1
aV0110299
p2
aV0098040
p3
aV0093051
p4
aV0099043
p5
aV0091019
p6
aV0100129
p7
aV0098513
p8
aV0290937
p9
aV0097530
p10
aV0091759
p11
aV0108275
p12
aV0122234
p13
aV0101025
p14
aV0110942
p15
aV0248428
p16
aV0383177
p17
aV0094882
p18
aV0111549
p19
aV0106833
p20
aV0090678
p21
aV0253884
p22
aV0098055
p23
aV0105572
p24
aV0094869
p25
aV0230597
p26
aV0096403
p27
aV0098219
p28
aV0095626
p29
aV0114704
p30
aV0101279
p31
aV0111552
p32
aV0089984
p33
aV0093304
p34
aV0090952
p35
aV0104377
p36
aV0095924
p37
aV0104892
p38
aV0104771
p39
aV0094089
p40
aV0089167
p41
aV0100639
p42
aV0111701
p43
aV0253782
p44
aV0098412
p45
aV0106504
p46
aV0090799
p47
aV0094939
p48
aV0089679
p49
aV0089420
p50
a.(lp0
V0137100
p1
aV0109913
p2
aV0095799
p3
aV0081766
p4
aV0121442
p5
aV0096321
p6
aV0102032
p7
aV0092879
p8
aV0098606
p9
aV0110852
p10
aV0089740
p11
aV0092809
p12
aV0091836
p13
aV0110891
p14
aV0095756
p15
aV0106417
p16
aV0112945
p17
aV0094620
p18
aV0097276
p19
aV0255306
p20
aV0112604
p21
aV0097892
p22
aV0113199
p23
aV0107625
p24
aV0093093
p25
aV0089821
p26
aV0092897
p27
aV0113858
p28
aV0108334
p29
aV0100281
p30
aV0096894
p31
aV0106260
p32
aV0100623
p33
aV0103243
p34
aV0096184
p35
aV0100973
p36
aV0105287
p37
aV0112446
p38
aV0107349
p39
aV0113080
p40
aV0113737
p41
aV0105811
p42
aV0092206
p43
aV0111862
p44
aV0098375
p45
aV0107333
p46
aV0252485
p47
aV0099524
p48
aV0094683
p49
aV0107146
p50
a.(lp0
V0103838
p1
aV0114844
p2
aV3189256
p3
aV0102573
p4
aV0114432
p5
aV0094730
p6
aV0252405
p7
aV0263074
p8
aV0100604
p9
aV0108565
p10
aV0101831
p11
aV0181182
p12
aV0099364
p13
aV0103601
p14
aV0092848
p15
aV0103959
p16
aV0109747
p17
aV0140090
p18
aV0101616
p19
aV0106827
p20
aV0121989
p21
aV0090185
p22
aV0108583
p23
aV0115042
p24
aV0089945
p25
aV0098486
p26
aV0094347
p27
aV0101660
p28
aV0098168
p29
aV0099978
p30
aV0100152
p31
aV0096152
p32
aV0097995
p33
aV0097841
p34
aV0096507
p35
aV0112387
p36
aV0095958
p37
aV0089009
p38
aV0098160
p39
aV0105385
p40
aV0094238
p41
aV0093004
p42
aV0104147
p43
aV0103328
p44
aV0109357
p45
aV0101309
p46
aV0091464
p47
aV0107566
p48
aV0090771
p49
aV0094783
p50
a.(lp0
V0102913
p1
aV0090956
p2
aV0097332
p3
aV0089598
p4
aV0114303
p5
aV0113939
p6
aV0105534
p7
aV0096003
p8
aV0134786
p9
aV0109593
p10
aV0110712
p11
aV0112483
p12
aV0278501
p13
aV0100663
p14
aV0105316
p15
aV0109942
p16
aV0102701
p17
aV0094349
p18
aV0122227
p19
aV0107471
p20
aV0104870
p21
aV0098073
p22
aV0095386
p23
aV0113557
p24
aV0102749
p25
aV0112480
p26
aV0482389
p27
aV0093225
p28
aV0093546
p29
aV0088771
p30
aV0104602
p31
aV0108074
p32
aV0098022
p33
aV0096294
p34
aV0095853
p35
aV0107225
p36
aV0090065
p37
aV0101366
p38
aV0106450
p39
aV0102812
p40
aV0252607
p41
aV0113674
p42
aV0094713
p43
aV0252602
p44
aV0090293
p45
aV0109028
p46
aV0253670
p47
aV0240425
p48
aV0113014
p49
aV0258960
p50
a.(lp0
V0112634
p1
aV0091506
p2
aV0100496
p3
aV0095274
p4
aV0100822
p5
aV0090246
p6
aV0115040
p7
aV0095217
p8
aV0107819
p9
aV0113510
p10
aV0103926
p11
aV0108560
p12
aV0093090
p13
aV0100613
p14
aV0114296
p15
aV0091313
p16
aV0106792
p17
aV0090610
p18
aV0101783
p19
aV0109034
p20
aV0112749
p21
aV0353975
p22
aV0098087
p23
aV0089789
p24
aV0099242
p25
aV0106949
p26
aV0096344
p27
aV0109454
p28
aV0101444
p29
aV0100470
p30
aV0097174
p31
aV0353935
p32
aV0093258
p33
aV0102996
p34
aV0093169
p35
aV0092559
p36
aV0087798
p37
aV0091406
p38
aV0111488
p39
aV0089622
p40
aV0092656
p41
aV0099460
p42
aV0104922
p43
aV0091165
p44
aV0091537
p45
aV0091671
p46
aV0102279
p47
aV0106258
p48
aV0108167
p49
aV0089444
p50
a.(lp0
V0101591
p1
aV0349113
p2
aV0114137
p3
aV0102583
p4
aV0100649
p5
aV0096744
p6
aV0102817
p7
aV0105599
p8
aV0102969
p9
aV0090073
p10
aV0111470
p11
aV0099691
p12
aV0089072
p13
aV0095178
p14
aV0107930
p15
aV0097521
p16
aV0097437
p17
aV0090101
p18
aV0254000
p19
aV2149814
p20
aV0087130
p21
aV0108260
p22
aV0092516
p23
aV0353496
p24
aV0104376
p25
aV0142251
p26
aV0094901
p27
aV0091027
p28
aV0110280
p29
aV0110805
p30
aV0097074
p31
aV0096523
p32
aV0091579
p33
aV0113429
p34
aV0096252
p35
aV0104658
p36
aV0084345
p37
aV0092651
p38
aV0091607
p39
aV0102439
p40
aV0101772
p41
aV0112714
p42
aV0095649
p43
aV0106438
p44
aV0095441
p45
aV0091003
p46
aV0100581
p47
aV0127045
p48
aV0112546
p49
aV0103116
p50
a.(lp0
V0101437
p1
aV0181080
p2
aV0092795
p3
aV0085253
p4
aV0111712
p5
aV0093139
p6
aV0104607
p7
aV0110623
p8
aV0090057
p9
aV0114354
p10
aV0113356
p11
aV0092860
p12
aV0091328
p13
aV0117143
p14
aV0104027
p15
aV0098678
p16
aV0095511
p17
aV0098112
p18
aV0091166
p19
aV0111308
p20
aV0105078
p21
aV0095574
p22
aV0101725
p23
aV0098649
p24
aV0253140
p25
aV0095238
p26
aV0105508
p27
aV0106204
p28
aV0780061
p29
aV0111454
p30
aV0110999
p31
aV0097561
p32
aV0108569
p33
aV0091355
p34
aV0100816
p35
aV0137226
p36
aV0093164
p37
aV0114651
p38
aV0102741
p39
aV0093502
p40
aV0113932
p41
aV0095241
p42
aV0098157
p43
aV0099595
p44
aV0101264
p45
aV0092042
p46
aV0095977
p47
aV0104553
p48
aV0100924
p49
aV0102014
p50
a.(lp0
V0106534
p1
aV0096310
p2
aV0193355
p3
aV0089338
p4
aV0106185
p5
aV0102299
p6
aV0094320
p7
aV0122037
p8
aV0114550
p9
aV0093949
p10
aV0097416
p11
aV0263388
p12
aV0091818
p13
aV0107157
p14
aV0105073
p15
aV0093286
p16
aV0093104
p17
aV0090565
p18
aV0093489
p19
aV0102691
p20
aV0093593
p21
aV0097478
p22
aV0107870
p23
aV0102816
p24
aV0136694
p25
aV0110908
p26
aV0106661
p27
aV0103848
p28
aV0105631
p29
aV0107227
p30
aV0095719
p31
aV0090037
p32
aV0107107
p33
aV0108194
p34
aV0098048
p35
aV0099636
p36
aV0089835
p37
aV0095276
p38
aV0096517
p39
aV0096453
p40
aV0090631
p41
aV0110091
p42
aV0098220
p43
aV0108555
p44
aV0091295
p45
aV0101524
p46
aV0200637
p47
aV0104962
p48
aV0093872
p49
aV0097095
p50
a.(lp0
V0102422
p1
aV0102638
p2
aV0255643
p3
aV0090245
p4
aV0113057
p5
aV0100757
p6
aV0107719
p7
aV0109699
p8
aV0102569
p9
aV0114031
p10
aV0111787
p11
aV0225009
p12
aV0109949
p13
aV0090209
p14
aV0095491
p15
aV0093416
p16
aV0091053
p17
aV0095888
p18
aV0108069
p19
aV0064994
p20
aV0091338
p21
aV0105059
p22
aV0105819
p23
aV0109277
p24
aV0107277
p25
aV0111049
p26
aV0095454
p27
aV0097365
p28
aV0095134
p29
aV0112609
p30
aV0089066
p31
aV0093239
p32
aV0114266
p33
aV0101502
p34
aV0220307
p35
aV0105291
p36
aV0114429
p37
aV0110168
p38
aV0103010
p39
aV0090812
p40
aV0111093
p41
aV0099935
p42
aV0098093
p43
aV0100589
p44
aV0253966
p45
aV0089052
p46
aV0113922
p47
aV0149573
p48
aV3834956
p49
aV0107103
p50
a.(lp0
V0101732
p1
aV0113774
p2
aV0094850
p3
aV0097567
p4
aV0097769
p5
aV0113918
p6
aV0798796
p7
aV0089584
p8
aV0113394
p9
aV0093913
p10
aV0094681
p11
aV0105706
p12
aV0098596
p13
aV0100975
p14
aV0114623
p15
aV0097872
p16
aV0102035
p17
aV0104697
p18
aV0096464
p19
aV0087606
p20
aV0097991
p21
aV0106350
p22
aV0096976
p23
aV0292174
p24
aV0142249
p25
aV0117577
p26
aV0110115
p27
aV0105871
p28
aV0104550
p29
aV0092751
p30
aV0112362
p31
aV0093111
p32
aV0101526
p33
aV0101256
p34
aV0105597
p35
aV0093990
p36
aV0098442
p37
aV0202152
p38
aV0181049
p39
aV0306519
p40
aV0109835
p41
aV0096211
p42
aV0210701
p43
aV0107289
p44
aV0141998
p45
aV0095877
p46
aV0113059
p47
aV0252196
p48
aV0113533
p49
aV0103103
p50
a.(lp0
V0089029
p1
aV0090310
p2
aV0091343
p3
aV0105655
p4
aV0109809
p5
aV0096925
p6
aV0113241
p7
aV0088111
p8
aV0094288
p9
aV0109627
p10
aV0089539
p11
aV0091051
p12
aV0089832
p13
aV0109071
p14
aV0096871
p15
aV0108577
p16
aV0102210
p17
aV0108293
p18
aV0110137
p19
aV0095564
p20
aV0110719
p21
aV0097045
p22
aV0104135
p23
aV0135037
p24
aV0249336
p25
aV0111102
p26
aV0095244
p27
aV0091398
p28
aV0237038
p29
aV0107330
p30
aV0181050
p31
aV0092545
p32
aV0103268
p33
aV0101998
p34
aV0091902
p35
aV0100274
p36
aV0093426
p37
aV0096280
p38
aV0108574
p39
aV0091183
p40
aV0091148
p41
aV0096769
p42
aV0290331
p43
aV0098333
p44
aV0093986
p45
aV0097498
p46
aV0091091
p47
aV0278891
p48
aV0088710
p49
aV0098230
p50
a.(lp0
V0088821
p1
aV0098368
p2
aV0363567
p3
aV0259308
p4
aV0093898
p5
aV0106218
p6
aV0095640
p7
aV0114371
p8
aV0099492
p9
aV0109478
p10
aV0109855
p11
aV0114212
p12
aV0089997
p13
aV0110044
p14
aV0090250
p15
aV0271694
p16
aV0100031
p17
aV0096340
p18
aV0097383
p19
aV0112844
p20
aV0096218
p21
aV0096029
p22
aV0249047
p23
aV0099479
p24
aV0106632
p25
aV0097727
p26
aV0180659
p27
aV0095483
p28
aV0089562
p29
aV0108290
p30
aV0105188
p31
aV0102217
p32
aV0099142
p33
aV0096329
p34
aV0111361
p35
aV0110022
p36
aV0089079
p37
aV0093006
p38
aV0101518
p39
aV0097081
p40
aV0089206
p41
aV0089552
p42
aV0105097
p43
aV0104057
p44
aV0095665
p45
aV0102223
p46
aV0102674
p47
aV0091810
p48
aV0099606
p49
aV0111054
p50
a.