(lp0
V0111161
p1
aV0137523
p2
aV0110912
p3
aV0109830
p4
aV0133093
p5
aV0114369
p6
aV0102926
p7
aV0120815
p8
aV0108052
p9
aV0169547
p10
aV0120689
p11
aV0120338
p12
aV0120586
p13
aV0114814
p14
aV0103064
p15
aV0112573
p16
aV0110413
p17
aV0099685
p18
aV0167404
p19
aV0120382
p20
aV0105236
p21
aV0110357
p22
aV0114709
p23
aV0107290
p24
aV0119217
p25
aV0118715
p26
aV0120915
p27
aV0117951
p28
aV0114746
p29
aV0116282
p30
aV0107048
p31
aV0118799
p32
aV0113277
p33
aV0116629
p34
aV0120735
p35
aV0119488
p36
aV0119654
p37
aV0120363
p38
aV0099487
p39
aV0119116
p40
aV0112641
p41
aV0099785
p42
aV0120591
p43
aV0101414
p44
aV0120616
p45
aV0163651
p46
aV0117060
p47
aV0112864
p48
aV0099088
p49
aV0109686
p50
a.(lp0
V0119567
p1
aV0105695
p2
aV0119094
p3
aV0099674
p4
aV0099423
p5
aV0103639
p6
aV0110475
p7
aV0162661
p8
aV0119174
p9
aV0111257
p10
aV0118971
p11
aV0117500
p12
aV0120601
p13
aV0129387
p14
aV0119396
p15
aV0100802
p16
aV0110148
p17
aV0175880
p18
aV0119698
p19
aV0120663
p20
aV0147800
p21
aV0107688
p22
aV0118880
p23
aV0119008
p24
aV0119822
p25
aV0117571
p26
aV0119177
p27
aV0119528
p28
aV0116367
p29
aV0120201
p30
aV0100405
p31
aV0109040
p32
aV0103776
p33
aV0113497
p34
aV0103644
p35
aV0106977
p36
aV0120623
p37
aV0120669
p38
aV0104431
p39
aV0112384
p40
aV0125439
p41
aV0118884
p42
aV0151804
p43
aV0113189
p44
aV0105323
p45
aV0144117
p46
aV0120611
p47
aV0112471
p48
aV0112462
p49
aV0116695
p50
a.(lp0
V0111503
p1
aV0185937
p2
aV0118688
p3
aV0118749
p4
aV0120812
p5
aV0099348
p6
aV0120660
p7
aV0107614
p8
aV0102057
p9
aV0104257
p10
aV0118655
p11
aV0120762
p12
aV0145660
p13
aV0107818
p14
aV0109445
p15
aV0120655
p16
aV0118583
p17
aV0138097
p18
aV0112442
p19
aV0110632
p20
aV0108550
p21
aV0116996
p22
aV0119643
p23
aV0117509
p24
aV0108399
p25
aV0123755
p26
aV0106519
p27
aV0112281
p28
aV0142342
p29
aV0158983
p30
aV0130827
p31
aV0118929
p32
aV0116483
p33
aV0143145
p34
aV0099653
p35
aV0117665
p36
aV0128853
p37
aV0120685
p38
aV0120855
p39
aV0119282
p40
aV0120347
p41
aV0139134
p42
aV0111282
p43
aV0118571
p44
aV0103874
p45
aV0102798
p46
aV0114898
p47
aV0122690
p48
aV0117998
p49
aV0116209
p50
a.(lp0
V0099810
p1
aV0138704
p2
aV0109707
p3
aV0120863
p4
aV0134119
p5
aV0112851
p6
aV0100157
p7
aV0120188
p8
aV0109506
p9
aV0142688
p10
aV0120746
p11
aV0128445
p12
aV0117381
p13
aV0106856
p14
aV0103772
p15
aV0120647
p16
aV0140352
p17
aV0129167
p18
aV0106308
p19
aV0101540
p20
aV0120891
p21
aV0104714
p22
aV0112697
p23
aV0172493
p24
aV0122151
p25
aV0120744
p26
aV0106697
p27
aV0106677
p28
aV0120082
p29
aV0114148
p30
aV0108160
p31
aV0120587
p32
aV0122933
p33
aV0115798
p34
aV0119081
p35
aV0177789
p36
aV0145681
p37
aV0128442
p38
aV0120484
p39
aV0159097
p40
aV0117705
p41
aV0102685
p42
aV0104691
p43
aV0105793
p44
aV0107207
p45
aV0102138
p46
aV0110322
p47
aV0118842
p48
aV0120784
p49
aV0120888
p50
a.(lp0
V0100403
p1
aV0109831
p2
aV0099938
p3
aV0113247
p4
aV0107362
p5
aV0120768
p6
aV0116583
p7
aV0119345
p8
aV0112508
p9
aV0100150
p10
aV0134273
p11
aV0103074
p12
aV0120789
p13
aV0117913
p14
aV0116922
p15
aV0119738
p16
aV0106489
p17
aV0125664
p18
aV0120657
p19
aV0149261
p20
aV0117438
p21
aV0101272
p22
aV0113749
p23
aV0108358
p24
aV0120102
p25
aV0117731
p26
aV0164912
p27
aV0106582
p28
aV0100507
p29
aV0146838
p30
aV0101507
p31
aV0099077
p32
aV0112431
p33
aV0113568
p34
aV0120632
p35
aV0113627
p36
aV0120794
p37
aV0100814
p38
aV0107977
p39
aV0117008
p40
aV0103855
p41
aV0133751
p42
aV0120783
p43
aV0101410
p44
aV0114069
p45
aV0120890
p46
aV0106918
p47
aV0113492
p48
aV0182789
p49
aV0146675
p50
a.(lp0
V0118617
p1
aV0112642
p2
aV0137494
p3
aV0119395
p4
aV0117218
p5
aV0120902
p6
aV0116213
p7
aV0102510
p8
aV0120889
p9
aV0104952
p10
aV0110478
p11
aV0120184
p12
aV0113855
p13
aV0119164
p14
aV0129290
p15
aV0112740
p16
aV0112461
p17
aV0105112
p18
aV0104070
p19
aV0102059
p20
aV0114388
p21
aV0113101
p22
aV0124315
p23
aV0119303
p24
aV0120873
p25
aV0110622
p26
aV0116136
p27
aV0104348
p28
aV0120907
p29
aV0171804
p30
aV0113118
p31
aV0103873
p32
aV0099871
p33
aV0115433
p34
aV0118883
p35
aV0122718
p36
aV0115759
p37
aV0174856
p38
aV0118689
p39
aV0102266
p40
aV0127536
p41
aV0118998
p42
aV0163187
p43
aV0118615
p44
aV0107206
p45
aV0119229
p46
aV0126886
p47
aV0112818
p48
aV0112817
p49
aV0104694
p50
a.(lp0
V0117666
p1
aV0114924
p2
aV0155267
p3
aV0117318
p4
aV0106611
p5
aV0120780
p6
aV0099700
p7
aV0165798
p8
aV0185125
p9
aV0116705
p10
aV0109444
p11
aV0118887
p12
aV0100758
p13
aV0137363
p14
aV0114214
p15
aV0105698
p16
aV0101761
p17
aV0151738
p18
aV0107144
p19
aV0111070
p20
aV0116365
p21
aV0160862
p22
aV0154506
p23
aV0120885
p24
aV0105417
p25
aV0101700
p26
aV0119137
p27
aV0154420
p28
aV0132477
p29
aV0104797
p30
aV0111495
p31
aV0110074
p32
aV0100502
p33
aV0166896
p34
aV0120787
p35
aV0108394
p36
aV0107822
p37
aV0101889
p38
aV0117802
p39
aV0120832
p40
aV0112401
p41
aV0116778
p42
aV0118928
p43
aV0117333
p44
aV0100935
p45
aV0107120
p46
aV0108525
p47
aV0115685
p48
aV0113161
p49
aV0114694
p50
a.(lp0
V0099582
p1
aV0152930
p2
aV0164181
p3
aV0105665
p4
aV0105690
p5
aV0099371
p6
aV0109254
p7
aV0114508
p8
aV0111280
p9
aV0109813
p10
aV0119173
p11
aV0120179
p12
aV0120828
p13
aV0181316
p14
aV0107798
p15
aV0116908
p16
aV0108037
p17
aV0113540
p18
aV0105812
p19
aV0119099
p20
aV0205000
p21
aV0120461
p22
aV0106220
p23
aV0171363
p24
aV0115963
p25
aV0101393
p26
aV0139239
p27
aV0107808
p28
aV0120738
p29
aV0120631
p30
aV0133952
p31
aV0118607
p32
aV0120844
p33
aV0150377
p34
aV0119190
p35
aV0102492
p36
aV0120791
p37
aV0119925
p38
aV0131325
p39
aV0102975
p40
aV0235198
p41
aV0119051
p42
aV0113071
p43
aV0113481
p44
aV0112579
p45
aV0130018
p46
aV0147612
p47
aV0151137
p48
aV0101862
p49
aV0112682
p50
a.(lp0
V0115734
p1
aV0100263
p2
aV0116225
p3
aV0113243
p4
aV0114558
p5
aV0120749
p6
aV0110932
p7
aV0145531
p8
aV0110216
p9
aV0116040
p10
aV0132347
p11
aV0139809
p12
aV0120177
p13
aV0111301
p14
aV0125659
p15
aV0106965
p16
aV0163988
p17
aV0101921
p18
aV0120148
p19
aV0104815
p20
aV0120053
p21
aV0178868
p22
aV0119468
p23
aV0120324
p24
aV0103786
p25
aV0103919
p26
aV0103241
p27
aV0111255
p28
aV0110989
p29
aV0117887
p30
aV0099052
p31
aV0114436
p32
aV0104652
p33
aV0110005
p34
aV0101452
p35
aV0116683
p36
aV0120694
p37
aV0115751
p38
aV0124298
p39
aV0113957
p40
aV0107211
p41
aV0120693
p42
aV0120770
p43
aV0112870
p44
aV0104231
p45
aV0131857
p46
aV0099365
p47
aV0146336
p48
aV0099422
p49
aV0120686
p50
a.(lp0
V0119978
p1
aV0116669
p2
aV0107943
p3
aV0109446
p4
aV0118972
p5
aV0111149
p6
aV0116409
p7
aV0119167
p8
aV0106387
p9
aV0119874
p10
aV0111507
p11
aV0119349
p12
aV0104868
p13
aV0138304
p14
aV0111438
p15
aV0106701
p16
aV0114787
p17
aV0185371
p18
aV0113409
p19
aV0099329
p20
aV0116830
p21
aV0120157
p22
aV0105435
p23
aV0111742
p24
aV0103939
p25
aV0139414
p26
aV0102803
p27
aV0102070
p28
aV0108002
p29
aV0117631
p30
aV0115641
p31
aV0112346
p32
aV0120877
p33
aV0119223
p34
aV0144214
p35
aV0109424
p36
aV0105151
p37
aV0103060
p38
aV0120731
p39
aV0112722
p40
aV0109836
p41
aV0150662
p42
aV0105265
p43
aV0115964
p44
aV0107302
p45
aV0102536
p46
aV0120399
p47
aV0119715
p48
aV0106598
p49
aV0104036
p50
a.(lp0
V0108333
p1
aV0118843
p2
aV0115736
p3
aV0112883
p4
aV0116253
p5
aV0115956
p6
aV0106673
p7
aV0107554
p8
aV0115857
p9
aV0116231
p10
aV0144120
p11
aV0118548
p12
aV0106246
p13
aV0101587
p14
aV0111686
p15
aV0124198
p16
aV0119558
p17
aV0113117
p18
aV0112950
p19
aV0112792
p20
aV0118771
p21
aV0116277
p22
aV0116126
p23
aV0104684
p24
aV0108255
p25
aV0109068
p26
aV0109117
p27
aV0102945
p28
aV0117918
p29
aV0155975
p30
aV0102494
p31
aV0127723
p32
aV0107659
p33
aV0109045
p34
aV0108147
p35
aV0107616
p36
aV0110367
p37
aV0118789
p38
aV0109635
p39
aV0119675
p40
aV0106226
p41
aV0105104
p42
aV0100050
p43
aV0102511
p44
aV0141369
p45
aV0119707
p46
aV0104291
p47
aV0110950
p48
aV0102034
p49
aV0124718
p50
a.(lp0
V0108330
p1
aV0114781
p2
aV0119807
p3
aV0117247
p4
aV0111756
p5
aV0107978
p6
aV0118954
p7
aV0172684
p8
aV0107076
p9
aV0104940
p10
aV0108122
p11
aV0131369
p12
aV0139699
p13
aV0111512
p14
aV0107969
p15
aV0107050
p16
aV0114681
p17
aV0118661
p18
aV0117765
p19
aV0118849
p20
aV0112715
p21
aV0113198
p22
aV0110366
p23
aV0117038
p24
aV0109190
p25
aV0123964
p26
aV0114287
p27
aV0106307
p28
aV0120434
p29
aV0107131
p30
aV0120032
p31
aV0108238
p32
aV0138510
p33
aV0110997
p34
aV0116313
p35
aV0113972
p36
aV0104437
p37
aV0119314
p38
aV0105046
p39
aV0099253
p40
aV0103893
p41
aV0113845
p42
aV0119360
p43
aV0113824
p44
aV0116287
p45
aV0119683
p46
aV0113819
p47
aV0105477
p48
aV0119668
p49
aV0105275
p50
a.(lp0
V0101917
p1
aV0099141
p2
aV0133385
p3
aV0106364
p4
aV0100258
p5
aV0156887
p6
aV0112453
p7
aV0118708
p8
aV0112896
p9
aV0166485
p10
aV0162677
p11
aV0113326
p12
aV0116477
p13
aV0190641
p14
aV0099044
p15
aV0129332
p16
aV0104187
p17
aV0165710
p18
aV0116242
p19
aV0104389
p20
aV0103759
p21
aV0124819
p22
aV0113862
p23
aV0119038
p24
aV0115697
p25
aV0119535
p26
aV0117723
p27
aV0114319
p28
aV0101764
p29
aV0101765
p30
aV0113986
p31
aV0100404
p32
aV0115783
p33
aV0130121
p34
aV0109348
p35
aV0119256
p36
aV0139462
p37
aV0119951
p38
aV0107507
p39
aV0117589
p40
aV0115988
p41
aV0108071
p42
aV0118636
p43
aV0116250
p44
aV0109642
p45
aV0140888
p46
aV0107034
p47
aV0103905
p48
aV0109520
p49
aV0127357
p50
a.(lp0
V0117883
p1
aV0100477
p2
aV0116191
p3
aV0110598
p4
aV0099892
p5
aV0120910
p6
aV0110167
p7
aV0104692
p8
aV0108174
p9
aV0114478
p10
aV0120185
p11
aV0120879
p12
aV0158371
p13
aV0119141
p14
aV0117331
p15
aV0107692
p16
aV0120577
p17
aV0128278
p18
aV0113041
p19
aV0117407
p20
aV0157503
p21
aV0120696
p22
aV0141098
p23
aV0120255
p24
aV0120802
p25
aV0118956
p26
aV0114906
p27
aV0110877
p28
aV0115639
p29
aV0104779
p30
aV0105629
p31
aV0101605
p32
aV0101745
p33
aV0115571
p34
aV0116654
p35
aV0126916
p36
aV0118747
p37
aV0114576
p38
aV0103956
p39
aV0139668
p40
aV0110729
p41
aV0100944
p42
aV0100029
p43
aV0113670
p44
aV0119013
p45
aV0120595
p46
aV0108500
p47
aV0108308
p48
aV0110857
p49
aV0141109
p50
a.(lp0
V0114887
p1
aV0102250
p2
aV0114614
p3
aV0119237
p4
aV0105643
p5
aV0117108
p6
aV0120684
p7
aV0107653
p8
aV0120609
p9
aV0165854
p10
aV0105414
p11
aV0120797
p12
aV0102526
p13
aV0114194
p14
aV0154421
p15
aV0117039
p16
aV0100994
p17
aV0105121
p18
aV0108211
p19
aV0114168
p20
aV0099939
p21
aV0113987
p22
aV0120483
p23
aV0176269
p24
aV0108065
p25
aV0102603
p26
aV0119731
p27
aV0102768
p28
aV0119942
p29
aV0114857
p30
aV0106469
p31
aV0106950
p32
aV0116905
p33
aV0108162
p34
aV0109303
p35
aV0120633
p36
aV0120751
p37
aV0120008
p38
aV0101912
p39
aV0107501
p40
aV0118819
p41
aV0110443
p42
aV0110527
p43
aV0105415
p44
aV0103594
p45
aV0110638
p46
aV0120841
p47
aV0109127
p48
aV0100133
p49
aV0100419
p50
a.(lp0
V0100054
p1
aV0119695
p2
aV0107438
p3
aV0100140
p4
aV0118111
p5
aV0120241
p6
aV0114852
p7
aV0114660
p8
aV0106770
p9
aV0099739
p10
aV0133189
p11
aV0099005
p12
aV0116361
p13
aV0101775
p14
aV0117979
p15
aV0120458
p16
aV0134618
p17
aV0101757
p18
aV0113870
p19
aV0104466
p20
aV0118798
p21
aV0107007
p22
aV0114682
p23
aV0119485
p24
aV0104454
p25
aV0101669
p26
aV0113253
p27
aV0114011
p28
aV0119250
p29
aV0115683
p30
aV0100436
p31
aV0101640
p32
aV0119664
p33
aV0111127
p34
aV0112760
p35
aV0166396
p36
aV0104254
p37
aV0119472
p38
aV0119215
p39
aV0101516
p40
aV0140379
p41
aV0169858
p42
aV0113419
p43
aV0099703
p44
aV0104409
p45
aV0117894
p46
aV0164538
p47
aV0115624
p48
aV0110442
p49
aV0103859
p50
a.(lp0
V0120533
p1
aV0117737
p2
aV0107843
p3
aV0116999
p4
aV0099472
p5
aV0104029
p6
aV0113820
p7
aV0100514
p8
aV0105488
p9
aV0114367
p10
aV0117786
p11
aV0179116
p12
aV0107254
p13
aV0118665
p14
aV0110006
p15
aV0110364
p16
aV0120654
p17
aV0110099
p18
aV0113501
p19
aV0106375
p20
aV0118556
p21
aV0116329
p22
aV0113228
p23
aV0119313
p24
aV0110955
p25
aV0120004
p26
aV0120094
p27
aV0116000
p28
aV0119115
p29
aV0116756
p30
aV0108171
p31
aV0117420
p32
aV0188674
p33
aV0106333
p34
aV0118604
p35
aV0155776
p36
aV0114594
p37
aV0110116
p38
aV0111143
p39
aV0110657
p40
aV0109456
p41
aV0108473
p42
aV0115640
p43
aV0120901
p44
aV0126388
p45
aV0107985
p46
aV0099699
p47
aV0100240
p48
aV0110200
p49
aV0100998
p50
a.(lp0
V0120620
p1
aV0120176
p2
aV0100135
p3
aV0119432
p4
aV0106332
p5
aV0107497
p6
aV0099528
p7
aV0160916
p8
aV0200087
p9
aV0105327
p10
aV0110725
p11
aV0118531
p12
aV0099334
p13
aV0124879
p14
aV0111333
p15
aV0099165
p16
aV0120777
p17
aV0118158
p18
aV0101329
p19
aV0098966
p20
aV0099726
p21
aV0109579
p22
aV0117608
p23
aV0172396
p24
aV0102558
p25
aV0106881
p26
aV0104412
p27
aV0104573
p28
aV0107387
p29
aV0104850
p30
aV0107711
p31
aV0104839
p32
aV0114825
p33
aV0104452
p34
aV0112572
p35
aV0134619
p36
aV0104427
p37
aV0102614
p38
aV0107473
p39
aV0100519
p40
aV0120866
p41
aV0110265
p42
aV0107665
p43
aV0178737
p44
aV0116130
p45
aV0145653
p46
aV0109555
p47
aV0112913
p48
aV0107151
p49
aV0133046
p50
a.(lp0
V0102719
p1
aV0103924
p2
aV0156934
p3
aV0104009
p4
aV0101635
p5
aV0100685
p6
aV0111693
p7
aV0114608
p8
aV0112688
p9
aV0115907
p10
aV0106912
p11
aV0104756
p12
aV0108149
p13
aV0103596
p14
aV0110763
p15
aV0119592
p16
aV0118755
p17
aV0110027
p18
aV0110308
p19
aV0180748
p20
aV0117110
p21
aV0145734
p22
aV0119891
p23
aV0120701
p24
aV0109592
p25
aV0103112
p26
aV0119791
p27
aV0144640
p28
aV0117011
p29
aV0115632
p30
aV0101829
p31
aV0105226
p32
aV0119896
p33
aV0100449
p34
aV0109676
p35
aV0118983
p36
aV0115986
p37
aV0110737
p38
aV0144168
p39
aV0103247
p40
aV0118845
p41
aV0115744
p42
aV0210234
p43
aV0110678
p44
aV0099615
p45
aV0159382
p46
aV0104561
p47
aV0120772
p48
aV0108185
p49
aV0110008
p50
a.(lp0
V0120265
p1
aV0116421
p2
aV0115438
p3
aV0117128
p4
aV0100212
p5
aV0104990
p6
aV0112819
p7
aV0102943
p8
aV0120524
p9
aV0100114
p10
aV0102744
p11
aV0110978
p12
aV0113442
p13
aV0105428
p14
aV0104040
p15
aV0101316
p16
aV0133363
p17
aV0104558
p18
aV0109439
p19
aV0142192
p20
aV0116704
p21
aV0110613
p22
aV0102587
p23
aV0164114
p24
aV0116324
p25
aV0110684
p26
aV0167427
p27
aV0100260
p28
aV0158811
p29
aV0113305
p30
aV0199683
p31
aV0102005
p32
aV0116514
p33
aV0102004
p34
aV0149691
p35
aV0157016
p36
aV0155711
p37
aV0109287
p38
aV0120596
p39
aV0166175
p40
aV0109759
p41
aV0118760
p42
aV0109402
p43
aV0106400
p44
aV0102782
p45
aV0131646
p46
aV0098987
p47
aV0104438
p48
aV0100318
p49
aV0099558
p50
a.(lp0
V0134067
p1
aV0113552
p2
aV0118996
p3
aV0109890
p4
aV0111797
p5
aV0116259
p6
aV0124901
p7
aV0103285
p8
aV0116731
p9
aV0105156
p10
aV0117628
p11
aV0110971
p12
aV0119123
p13
aV0103994
p14
aV0118966
p15
aV0147004
p16
aV0101698
p17
aV0108188
p18
aV0105128
p19
aV0108186
p20
aV0112966
p21
aV0110963
p22
aV0112857
p23
aV0110076
p24
aV0109370
p25
aV0102175
p26
aV0106452
p27
aV0108551
p28
aV0108101
p29
aV0099850
p30
aV0110213
p31
aV0110222
p32
aV0105378
p33
aV0263438
p34
aV0108265
p35
aV0115678
p36
aV0118570
p37
aV0107091
p38
aV0119994
p39
aV0108148
p40
aV0113114
p41
aV0211934
p42
aV0119053
p43
aV0112922
p44
aV0100232
p45
aV0099385
p46
aV0120662
p47
aV0117107
p48
aV0144814
p49
aV0113677
p50
a.(lp0
V0122541
p1
aV0109951
p2
aV0137338
p3
aV0102789
p4
aV0100485
p5
aV0102915
p6
aV0118892
p7
aV0102713
p8
aV0101258
p9
aV0102216
p10
aV0120716
p11
aV0101969
p12
aV0104237
p13
aV0120741
p14
aV0107426
p15
aV0104114
p16
aV0110631
p17
aV0107282
p18
aV0150992
p19
aV0110907
p20
aV0104549
p21
aV0107286
p22
aV0120514
p23
aV0102388
p24
aV0104299
p25
aV0120906
p26
aV0119109
p27
aV0106627
p28
aV0116790
p29
aV0110428
p30
aV0117119
p31
aV0100395
p32
aV0120834
p33
aV0118826
p34
aV0106664
p35
aV0107478
p36
aV0113613
p37
aV0099776
p38
aV0189584
p39
aV0144715
p40
aV0114345
p41
aV0119718
p42
aV0110081
p43
aV0118564
p44
aV0101787
p45
aV0125454
p46
aV0113799
p47
aV0119225
p48
aV0117002
p49
aV0111419
p50
a.(lp0
V0191043
p1
aV0102951
p2
aV0118301
p3
aV0114279
p4
aV0120152
p5
aV0100530
p6
aV0120724
p7
aV0117057
p8
aV0102316
p9
aV0124595
p10
aV0126604
p11
aV0120800
p12
aV0100486
p13
aV0112887
p14
aV0115561
p15
aV0103850
p16
aV0193253
p17
aV0118632
p18
aV0105585
p19
aV0119361
p20
aV0100740
p21
aV0106453
p22
aV0145893
p23
aV0118055
p24
aV0111579
p25
aV0110882
p26
aV0117958
p27
aV0116860
p28
aV0105699
p29
aV0110687
p30
aV0113690
p31
aV0132512
p32
aV0145503
p33
aV0116095
p34
aV0099819
p35
aV0134154
p36
aV0118767
p37
aV0106292
p38
aV0119280
p39
aV0126250
p40
aV0111732
p41
aV0107156
p42
aV0144201
p43
aV0104265
p44
aV0116552
p45
aV0109035
p46
aV0111418
p47
aV0119086
p48
aV0120764
p49
aV0102426
p50
a.(lp0
V0107983
p1
aV0107096
p2
aV0099204
p3
aV0108526
p4
aV0120710
p5
aV0116531
p6
aV0120820
p7
aV0111400
p8
aV0099012
p9
aV0114702
p10
aV0112744
p11
aV0117826
p12
aV0129280
p13
aV0117603
p14
aV0116707
p15
aV0110771
p16
aV0120646
p17
aV0107953
p18
aV0114496
p19
aV0162973
p20
aV0114134
p21
aV0102343
p22
aV0115862
p23
aV0108539
p24
aV0119670
p25
aV0109936
p26
aV0235060
p27
aV0119861
p28
aV0110759
p29
aV0119375
p30
aV0105217
p31
aV0105211
p32
aV0109688
p33
aV0103030
p34
aV0116260
p35
aV0123209
p36
aV0108451
p37
aV0099762
p38
aV0107756
p39
aV0111667
p40
aV0113010
p41
aV0120540
p42
aV0218553
p43
aV0099994
p44
aV0166943
p45
aV0111477
p46
aV0115819
p47
aV0109484
p48
aV0110123
p49
aV0120786
p50
a.(lp0
V0119210
p1
aV0102293
p2
aV0196857
p3
aV0099740
p4
aV0120728
p5
aV0151568
p6
aV0113526
p7
aV0104695
p8
aV0103793
p9
aV0117496
p10
aV0116151
p11
aV0102555
p12
aV0128332
p13
aV0104181
p14
aV0109842
p15
aV0111001
p16
aV0106341
p17
aV0112571
p18
aV0109198
p19
aV0109305
p20
aV0110093
p21
aV0107315
p22
aV0120604
p23
aV0101453
p24
aV0200071
p25
aV0106471
p26
aV0100234
p27
aV0104545
p28
aV0101786
p29
aV0120831
p30
aV0117774
p31
aV0119381
p32
aV0106941
p33
aV0100201
p34
aV0120776
p35
aV0112750
p36
aV0113097
p37
aV0120125
p38
aV0110516
p39
aV0099160
p40
aV0113451
p41
aV0107840
p42
aV0120868
p43
aV0118863
p44
aV0120857
p45
aV0115693
p46
aV0164108
p47
aV0117615
p48
aV0119196
p49
aV0195231
p50
a.(lp0
V0113321
p1
aV0101318
p2
aV0119448
p3
aV0116289
p4
aV0184526
p5
aV0120390
p6
aV0233422
p7
aV0114323
p8
aV0118539
p9
aV0100594
p10
aV0117372
p11
aV0118751
p12
aV0120520
p13
aV0119336
p14
aV0117364
p15
aV0105399
p16
aV0099800
p17
aV0120207
p18
aV0100928
p19
aV0110612
p20
aV0103923
p21
aV0106761
p22
aV0113347
p23
aV0107630
p24
aV0101821
p25
aV0120070
p26
aV0100828
p27
aV0105459
p28
aV0200654
p29
aV0116722
p30
aV0220832
p31
aV0105130
p32
aV0116410
p33
aV0120769
p34
aV0150915
p35
aV0162360
p36
aV0119311
p37
aV0134033
p38
aV0100168
p39
aV0119114
p40
aV0101627
p41
aV0110647
p42
aV0139362
p43
aV0110169
p44
aV0111323
p45
aV0109327
p46
aV0116743
p47
aV0119594
p48
aV0115851
p49
aV0118073
p50
a.(lp0
V0105017
p1
aV0102517
p2
aV0111201
p3
aV0105466
p4
aV0145547
p5
aV0160236
p6
aV0200469
p7
aV0163579
p8
aV0190419
p9
aV0110889
p10
aV0104926
p11
aV0099797
p12
aV0119227
p13
aV0116322
p14
aV0110538
p15
aV0120321
p16
aV0119142
p17
aV0156729
p18
aV0194314
p19
aV0497915
p20
aV0102598
p21
aV0141974
p22
aV0099426
p23
aV0116493
p24
aV0102164
p25
aV0114671
p26
aV0104647
p27
aV0113083
p28
aV0118541
p29
aV0119214
p30
aV0105636
p31
aV0165546
p32
aV0102181
p33
aV0140397
p34
aV0169880
p35
aV0116839
p36
aV0131566
p37
aV0108281
p38
aV0150216
p39
aV0110363
p40
aV0118804
p41
aV0118768
p42
aV0115710
p43
aV0120882
p44
aV0099817
p45
aV0202381
p46
aV0110570
p47
aV0116311
p48
aV0112553
p49
aV0133024
p50
a.(lp0
V0112302
p1
aV0112625
p2
aV0117550
p3
aV0103003
p4
aV0112757
p5
aV0135790
p6
aV0102592
p7
aV0103747
p8
aV0112541
p9
aV0118744
p10
aV0101420
p11
aV0120757
p12
aV0116684
p13
aV0125971
p14
aV0102303
p15
aV0114057
p16
aV0114885
p17
aV0105159
p18
aV0114272
p19
aV0107612
p20
aV0103791
p21
aV0103950
p22
aV0101615
p23
aV0105391
p24
aV0107889
p25
aV0105271
p26
aV0118647
p27
aV0104507
p28
aV0119590
p29
aV0120773
p30
aV0104511
p31
aV0109279
p32
aV0100142
p33
aV0120238
p34
aV0120029
p35
aV0099512
p36
aV0119784
p37
aV0170705
p38
aV0116581
p39
aV0106500
p40
aV0109067
p41
aV0109369
p42
aV0110917
p43
aV0105839
p44
aV0119152
p45
aV0103130
p46
aV0165078
p47
aV0105682
p48
aV0158493
p49
aV0142804
p50
a.(lp0
V0116448
p1
aV0106266
p2
aV0101545
p3
aV0206013
p4
aV0116168
p5
aV0112769
p6
aV0099697
p7
aV0127722
p8
aV0139151
p9
aV0116165
p10
aV0119792
p11
aV0112499
p12
aV0105616
p13
aV0107529
p14
aV0113537
p15
aV0100112
p16
aV0116320
p17
aV0119304
p18
aV0116353
p19
aV0106613
p20
aV0116768
p21
aV0102443
p22
aV0120112
p23
aV0114048
p24
aV0112679
p25
aV0101458
p26
aV0119080
p27
aV0111003
p28
aV0116378
p29
aV0155753
p30
aV0119517
p31
aV0162710
p32
aV0192657
p33
aV0101846
p34
aV0102469
p35
aV0102116
p36
aV0107468
p37
aV0116621
p38
aV0102460
p39
aV0109361
p40
aV0149601
p41
aV0104670
p42
aV0109015
p43
aV0118691
p44
aV0156794
p45
aV0120610
p46
aV0107004
p47
aV0142236
p48
aV0209189
p49
aV0104073
p50
a.(lp0
V0115644
p1
aV0107927
p2
aV0115645
p3
aV0112379
p4
aV0120389
p5
aV0103016
p6
aV0120618
p7
aV0104346
p8
aV0117283
p9
aV0142242
p10
aV0119809
p11
aV0120613
p12
aV0120706
p13
aV0123948
p14
aV0168501
p15
aV0112288
p16
aV0119887
p17
aV0116630
p18
aV0109288
p19
aV0161100
p20
aV0165773
p21
aV0113755
p22
aV0119324
p23
aV0164756
p24
aV0168987
p25
aV0115495
p26
aV0113762
p27
aV0119484
p28
aV0116571
p29
aV0120782
p30
aV0101748
p31
aV0120122
p32
aV0102609
p33
aV0105165
p34
aV0111341
p35
aV0100475
p36
aV0099611
p37
aV0100024
p38
aV0119879
p39
aV0188030
p40
aV0120449
p41
aV0102900
p42
aV0115781
p43
aV0116075
p44
aV0105219
p45
aV0109297
p46
aV0105402
p47
aV0136352
p48
aV0114234
p49
aV0103239
p50
a.(lp0
V0110329
p1
aV0098532
p2
aV0118750
p3
aV0149151
p4
aV0116502
p5
aV0114126
p6
aV0102802
p7
aV0102820
p8
aV0119848
p9
aV0106223
p10
aV0155388
p11
aV0108258
p12
aV0114563
p13
aV0118698
p14
aV0119506
p15
aV0107617
p16
aV0116426
p17
aV0119079
p18
aV0109493
p19
aV0119906
p20
aV0100280
p21
aV0112585
p22
aV0171685
p23
aV0133985
p24
aV0099654
p25
aV0113500
p26
aV0151691
p27
aV0101984
p28
aV0181627
p29
aV0133412
p30
aV0118900
p31
aV0109504
p32
aV0103035
p33
aV0122082
p34
aV0108442
p35
aV0100143
p36
aV0120036
p37
aV0115580
p38
aV0186253
p39
aV0110823
p40
aV0216986
p41
aV0104627
p42
aV0110146
p43
aV0104860
p44
aV0106936
p45
aV0099951
p46
aV0106834
p47
aV0221111
p48
aV0100224
p49
aV0103671
p50
a.(lp0
V0111161
p1
aV0137523
p2
aV0110912
p3
aV0109830
p4
aV0133093
p5
aV0114369
p6
aV0102926
p7
aV0120815
p8
aV0108052
p9
aV0169547
p10
aV0120689
p11
aV0120338
p12
aV0120586
p13
aV0114814
p14
aV0103064
p15
aV0112573
p16
aV0110413
p17
aV0099685
p18
aV0167404
p19
aV0120382
p20
aV0105236
p21
aV0110357
p22
aV0114709
p23
aV0107290
p24
aV0119217
p25
aV0118715
p26
aV0120915
p27
aV0117951
p28
aV0114746
p29
aV0116282
p30
aV0107048
p31
aV0118799
p32
aV0113277
p33
aV0116629
p34
aV0120735
p35
aV0119488
p36
aV0119654
p37
aV0120363
p38
aV0099487
p39
aV0119116
p40
aV0112641
p41
aV0099785
p42
aV0120591
p43
aV0101414
p44
aV0120616
p45
aV0163651
p46
aV0117060
p47
aV0112864
p48
aV0099088
p49
aV0109686
p50
a.(lp0
V0119567
p1
aV0105695
p2
aV0119094
p3
aV0099674
p4
aV0099423
p5
aV0103639
p6
aV0110475
p7
aV0162661
p8
aV0119174
p9
aV0111257
p10
aV0118971
p11
aV0117500
p12
aV0120601
p13
aV0129387
p14
aV0119396
p15
aV0100802
p16
aV0110148
p17
aV0175880
p18
aV0119698
p19
aV0120663
p20
aV0147800
p21
aV0107688
p22
aV0118880
p23
aV0119008
p24
aV0119822
p25
aV0117571
p26
aV0119177
p27
aV0119528
p28
aV0116367
p29
aV0120201
p30
aV0100405
p31
aV0109040
p32
aV0103776
p33
aV0113497
p34
aV0103644
p35
aV0106977
p36
aV0120623
p37
aV0120669
p38
aV0104431
p39
aV0112384
p40
aV0125439
p41
aV0118884
p42
aV0151804
p43
aV0113189
p44
aV0105323
p45
aV0144117
p46
aV0120611
p47
aV0112471
p48
aV0112462
p49
aV0116695
p50
a.(lp0
V0111503
p1
aV0185937
p2
aV0118688
p3
aV0118749
p4
aV0120812
p5
aV0099348
p6
aV0120660
p7
aV0107614
p8
aV0102057
p9
aV0104257
p10
aV0118655
p11
aV0120762
p12
aV0145660
p13
aV0107818
p14
aV0109445
p15
aV0120655
p16
aV0118583
p17
aV0138097
p18
aV0112442
p19
aV0110632
p20
aV0108550
p21
aV0116996
p22
aV0119643
p23
aV0117509
p24
aV0108399
p25
aV0123755
p26
aV0106519
p27
aV0112281
p28
aV0142342
p29
aV0158983
p30
aV0130827
p31
aV0118929
p32
aV0116483
p33
aV0143145
p34
aV0099653
p35
aV0117665
p36
aV0128853
p37
aV0120685
p38
aV0120855
p39
aV0119282
p40
aV0120347
p41
aV0139134
p42
aV0111282
p43
aV0118571
p44
aV0103874
p45
aV0102798
p46
aV0114898
p47
aV0122690
p48
aV0117998
p49
aV0116209
p50
a.(lp0
V0099810
p1
aV0138704
p2
aV0109707
p3
aV0120863
p4
aV0134119
p5
aV0112851
p6
aV0100157
p7
aV0120188
p8
aV0109506
p9
aV0142688
p10
aV0120746
p11
aV0128445
p12
aV0117381
p13
aV0106856
p14
aV0103772
p15
aV0120647
p16
aV0140352
p17
aV0129167
p18
aV0106308
p19
aV0101540
p20
aV0120891
p21
aV0104714
p22
aV0112697
p23
aV0172493
p24
aV0122151
p25
aV0120744
p26
aV0106697
p27
aV0106677
p28
aV0120082
p29
aV0114148
p30
aV0108160
p31
aV0120587
p32
aV0122933
p33
aV0115798
p34
aV0119081
p35
aV0177789
p36
aV0145681
p37
aV0128442
p38
aV0120484
p39
aV0159097
p40
aV0117705
p41
aV0102685
p42
aV0104691
p43
aV0105793
p44
aV0107207
p45
aV0102138
p46
aV0110322
p47
aV0118842
p48
aV0120784
p49
aV0120888
p50
a.(lp0
V0100403
p1
aV0109831
p2
aV0099938
p3
aV0113247
p4
aV0107362
p5
aV0120768
p6
aV0116583
p7
aV0119345
p8
aV0112508
p9
aV0100150
p10
aV0134273
p11
aV0103074
p12
aV0120789
p13
aV0117913
p14
aV0116922
p15
aV0119738
p16
aV0106489
p17
aV0125664
p18
aV0120657
p19
aV0149261
p20
aV0117438
p21
aV0101272
p22
aV0113749
p23
aV0108358
p24
aV0120102
p25
aV0117731
p26
aV0164912
p27
aV0106582
p28
aV0100507
p29
aV0146838
p30
aV0101507
p31
aV0099077
p32
aV0112431
p33
aV0113568
p34
aV0120632
p35
aV0113627
p36
aV0120794
p37
aV0100814
p38
aV0107977
p39
aV0117008
p40
aV0103855
p41
aV0133751
p42
aV0120783
p43
aV0101410
p44
aV0114069
p45
aV0120890
p46
aV0106918
p47
aV0113492
p48
aV0182789
p49
aV0146675
p50
a.(lp0
V0118617
p1
aV0112642
p2
aV0137494
p3
aV0119395
p4
aV0117218
p5
aV0120902
p6
aV0116213
p7
aV0102510
p8
aV0120889
p9
aV0104952
p10
aV0110478
p11
aV0120184
p12
aV0113855
p13
aV0119164
p14
aV0129290
p15
aV0112740
p16
aV0112461
p17
aV0105112
p18
aV0104070
p19
aV0102059
p20
aV0114388
p21
aV0113101
p22
aV0124315
p23
aV0119303
p24
aV0120873
p25
aV0110622
p26
aV0116136
p27
aV0104348
p28
aV0120907
p29
aV0171804
p30
aV0113118
p31
aV0103873
p32
aV0099871
p33
aV0115433
p34
aV0118883
p35
aV0122718
p36
aV0115759
p37
aV0174856
p38
aV0118689
p39
aV0102266
p40
aV0127536
p41
aV0118998
p42
aV0163187
p43
aV0118615
p44
aV0107206
p45
aV0119229
p46
aV0126886
p47
aV0112818
p48
aV0112817
p49
aV0104694
p50
a.(lp0
V0117666
p1
aV0114924
p2
aV0155267
p3
aV0117318
p4
aV0106611
p5
aV0120780
p6
aV0099700
p7
aV0165798
p8
aV0185125
p9
aV0116705
p10
aV0109444
p11
aV0118887
p12
aV0100758
p13
aV0137363
p14
aV0114214
p15
aV0105698
p16
aV0101761
p17
aV0151738
p18
aV0107144
p19
aV0111070
p20
aV0116365
p21
aV0160862
p22
aV0154506
p23
aV0120885
p24
aV0105417
p25
aV0101700
p26
aV0119137
p27
aV0154420
p28
aV0132477
p29
aV0104797
p30
aV0111495
p31
aV0110074
p32
aV0100502
p33
aV0166896
p34
aV0120787
p35
aV0108394
p36
aV0107822
p37
aV0101889
p38
aV0117802
p39
aV0120832
p40
aV0112401
p41
aV0116778
p42
aV0118928
p43
aV0117333
p44
aV0100935
p45
aV0107120
p46
aV0108525
p47
aV0115685
p48
aV0113161
p49
aV0114694
p50
a.(lp0
V0099582
p1
aV0152930
p2
aV0164181
p3
aV0105665
p4
aV0105690
p5
aV0099371
p6
aV0109254
p7
aV0114508
p8
aV0111280
p9
aV0109813
p10
aV0119173
p11
aV0120179
p12
aV0120828
p13
aV0181316
p14
aV0107798
p15
aV0116908
p16
aV0108037
p17
aV0113540
p18
aV0105812
p19
aV0119099
p20
aV0205000
p21
aV0120461
p22
aV0106220
p23
aV0171363
p24
aV0115963
p25
aV0101393
p26
aV0139239
p27
aV0107808
p28
aV0120738
p29
aV0120631
p30
aV0133952
p31
aV0118607
p32
aV0120844
p33
aV0150377
p34
aV0119190
p35
aV0102492
p36
aV0120791
p37
aV0119925
p38
aV0131325
p39
aV0102975
p40
aV0235198
p41
aV0119051
p42
aV0113071
p43
aV0113481
p44
aV0112579
p45
aV0130018
p46
aV0147612
p47
aV0151137
p48
aV0101862
p49
aV0112682
p50
a.(lp0
V0115734
p1
aV0100263
p2
aV0116225
p3
aV0113243
p4
aV0114558
p5
aV0120749
p6
aV0110932
p7
aV0145531
p8
aV0110216
p9
aV0116040
p10
aV0132347
p11
aV0139809
p12
aV0120177
p13
aV0111301
p14
aV0125659
p15
aV0106965
p16
aV0163988
p17
aV0101921
p18
aV0120148
p19
aV0104815
p20
aV0120053
p21
aV0178868
p22
aV0119468
p23
aV0120324
p24
aV0103786
p25
aV0103919
p26
aV0103241
p27
aV0111255
p28
aV0110989
p29
aV0117887
p30
aV0099052
p31
aV0114436
p32
aV0104652
p33
aV0110005
p34
aV0101452
p35
aV0116683
p36
aV0120694
p37
aV0115751
p38
aV0124298
p39
aV0113957
p40
aV0107211
p41
aV0120693
p42
aV0120770
p43
aV0112870
p44
aV0104231
p45
aV0131857
p46
aV0099365
p47
aV0146336
p48
aV0099422
p49
aV0120686
p50
a.(lp0
V0119978
p1
aV0116669
p2
aV0107943
p3
aV0109446
p4
aV0118972
p5
aV0111149
p6
aV0116409
p7
aV0119167
p8
aV0106387
p9
aV0119874
p10
aV0111507
p11
aV0119349
p12
aV0104868
p13
aV0138304
p14
aV0111438
p15
aV0106701
p16
aV0114787
p17
aV0185371
p18
aV0113409
p19
aV0099329
p20
aV0116830
p21
aV0120157
p22
aV0105435
p23
aV0111742
p24
aV0103939
p25
aV0139414
p26
aV0102803
p27
aV0102070
p28
aV0108002
p29
aV0117631
p30
aV0115641
p31
aV0112346
p32
aV0120877
p33
aV0119223
p34
aV0144214
p35
aV0109424
p36
aV0105151
p37
aV0103060
p38
aV0120731
p39
aV0112722
p40
aV0109836
p41
aV0150662
p42
aV0105265
p43
aV0115964
p44
aV0107302
p45
aV0102536
p46
aV0120399
p47
aV0119715
p48
aV0106598
p49
aV0104036
p50
a.(lp0
V0108333
p1
aV0118843
p2
aV0115736
p3
aV0112883
p4
aV0116253
p5
aV0115956
p6
aV0106673
p7
aV0107554
p8
aV0115857
p9
aV0116231
p10
aV0144120
p11
aV0118548
p12
aV0106246
p13
aV0101587
p14
aV0111686
p15
aV0124198
p16
aV0119558
p17
aV0113117
p18
aV0112950
p19
aV0112792
p20
aV0118771
p21
aV0116277
p22
aV0116126
p23
aV0104684
p24
aV0108255
p25
aV0109068
p26
aV0109117
p27
aV0102945
p28
aV0117918
p29
aV0155975
p30
aV0102494
p31
aV0127723
p32
aV0107659
p33
aV0109045
p34
aV0108147
p35
aV0107616
p36
aV0110367
p37
aV0118789
p38
aV0109635
p39
aV0119675
p40
aV0106226
p41
aV0105104
p42
aV0100050
p43
aV0102511
p44
aV0141369
p45
aV0119707
p46
aV0104291
p47
aV0110950
p48
aV0102034
p49
aV0124718
p50
a.(lp0
V0108330
p1
aV0114781
p2
aV0119807
p3
aV0117247
p4
aV0111756
p5
aV0107978
p6
aV0118954
p7
aV0172684
p8
aV0107076
p9
aV0104940
p10
aV0108122
p11
aV0131369
p12
aV0139699
p13
aV0111512
p14
aV0107969
p15
aV0107050
p16
aV0114681
p17
aV0118661
p18
aV0117765
p19
aV0118849
p20
aV0112715
p21
aV0113198
p22
aV0110366
p23
aV0117038
p24
aV0109190
p25
aV0123964
p26
aV0114287
p27
aV0106307
p28
aV0120434
p29
aV0107131
p30
aV0120032
p31
aV0108238
p32
aV0138510
p33
aV0110997
p34
aV0116313
p35
aV0113972
p36
aV0104437
p37
aV0119314
p38
aV0105046
p39
aV0099253
p40
aV0103893
p41
aV0113845
p42
aV0119360
p43
aV0113824
p44
aV0116287
p45
aV0119683
p46
aV0113819
p47
aV0105477
p48
aV0119668
p49
aV0105275
p50
a.(lp0
V0101917
p1
aV0099141
p2
aV0133385
p3
aV0106364
p4
aV0100258
p5
aV0156887
p6
aV0112453
p7
aV0118708
p8
aV0112896
p9
aV0166485
p10
aV0162677
p11
aV0113326
p12
aV0116477
p13
aV0190641
p14
aV0099044
p15
aV0129332
p16
aV0104187
p17
aV0165710
p18
aV0116242
p19
aV0104389
p20
aV0103759
p21
aV0124819
p22
aV0113862
p23
aV0119038
p24
aV0115697
p25
aV0119535
p26
aV0117723
p27
aV0114319
p28
aV0101764
p29
aV0101765
p30
aV0113986
p31
aV0100404
p32
aV0115783
p33
aV0130121
p34
aV0109348
p35
aV0119256
p36
aV0139462
p37
aV0119951
p38
aV0107507
p39
aV0117589
p40
aV0115988
p41
aV0108071
p42
aV0118636
p43
aV0116250
p44
aV0109642
p45
aV0140888
p46
aV0107034
p47
aV0103905
p48
aV0109520
p49
aV0127357
p50
a.(lp0
V0117883
p1
aV0100477
p2
aV0116191
p3
aV0110598
p4
aV0099892
p5
aV0120910
p6
aV0110167
p7
aV0104692
p8
aV0108174
p9
aV0114478
p10
aV0120185
p11
aV0120879
p12
aV0158371
p13
aV0119141
p14
aV0117331
p15
aV0107692
p16
aV0120577
p17
aV0128278
p18
aV0113041
p19
aV0117407
p20
aV0157503
p21
aV0120696
p22
aV0141098
p23
aV0120255
p24
aV0120802
p25
aV0118956
p26
aV0114906
p27
aV0110877
p28
aV0115639
p29
aV0104779
p30
aV0105629
p31
aV0101605
p32
aV0101745
p33
aV0115571
p34
aV0116654
p35
aV0126916
p36
aV0118747
p37
aV0114576
p38
aV0103956
p39
aV0139668
p40
aV0110729
p41
aV0100944
p42
aV0100029
p43
aV0113670
p44
aV0119013
p45
aV0120595
p46
aV0108500
p47
aV0108308
p48
aV0110857
p49
aV0141109
p50
a.(lp0
V0114887
p1
aV0102250
p2
aV0114614
p3
aV0119237
p4
aV0105643
p5
aV0117108
p6
aV0120684
p7
aV0107653
p8
aV0120609
p9
aV0165854
p10
aV0105414
p11
aV0120797
p12
aV0102526
p13
aV0114194
p14
aV0154421
p15
aV0117039
p16
aV0100994
p17
aV0105121
p18
aV0108211
p19
aV0114168
p20
aV0099939
p21
aV0113987
p22
aV0120483
p23
aV0176269
p24
aV0108065
p25
aV0102603
p26
aV0119731
p27
aV0102768
p28
aV0119942
p29
aV0114857
p30
aV0106469
p31
aV0106950
p32
aV0116905
p33
aV0108162
p34
aV0109303
p35
aV0120633
p36
aV0120751
p37
aV0120008
p38
aV0101912
p39
aV0107501
p40
aV0118819
p41
aV0110443
p42
aV0110527
p43
aV0105415
p44
aV0103594
p45
aV0110638
p46
aV0120841
p47
aV0109127
p48
aV0100133
p49
aV0100419
p50
a.(lp0
V0100054
p1
aV0119695
p2
aV0107438
p3
aV0100140
p4
aV0118111
p5
aV0120241
p6
aV0114852
p7
aV0114660
p8
aV0106770
p9
aV0099739
p10
aV0133189
p11
aV0099005
p12
aV0116361
p13
aV0101775
p14
aV0117979
p15
aV0120458
p16
aV0134618
p17
aV0101757
p18
aV0113870
p19
aV0104466
p20
aV0118798
p21
aV0107007
p22
aV0114682
p23
aV0119485
p24
aV0104454
p25
aV0101669
p26
aV0113253
p27
aV0114011
p28
aV0119250
p29
aV0115683
p30
aV0100436
p31
aV0101640
p32
aV0119664
p33
aV0111127
p34
aV0112760
p35
aV0166396
p36
aV0104254
p37
aV0119472
p38
aV0119215
p39
aV0101516
p40
aV0140379
p41
aV0169858
p42
aV0113419
p43
aV0099703
p44
aV0104409
p45
aV0117894
p46
aV0164538
p47
aV0115624
p48
aV0110442
p49
aV0103859
p50
a.(lp0
V0120533
p1
aV0117737
p2
aV0107843
p3
aV0116999
p4
aV0099472
p5
aV0104029
p6
aV0113820
p7
aV0100514
p8
aV0105488
p9
aV0114367
p10
aV0117786
p11
aV0179116
p12
aV0107254
p13
aV0118665
p14
aV0110006
p15
aV0110364
p16
aV0120654
p17
aV0110099
p18
aV0113501
p19
aV0106375
p20
aV0118556
p21
aV0116329
p22
aV0113228
p23
aV0119313
p24
aV0110955
p25
aV0120004
p26
aV0120094
p27
aV0116000
p28
aV0119115
p29
aV0116756
p30
aV0108171
p31
aV0117420
p32
aV0188674
p33
aV0106333
p34
aV0118604
p35
aV0155776
p36
aV0114594
p37
aV0110116
p38
aV0111143
p39
aV0110657
p40
aV0109456
p41
aV0108473
p42
aV0115640
p43
aV0120901
p44
aV0126388
p45
aV0107985
p46
aV0099699
p47
aV0100240
p48
aV0110200
p49
aV0100998
p50
a.(lp0
V0120620
p1
aV0120176
p2
aV0100135
p3
aV0119432
p4
aV0106332
p5
aV0107497
p6
aV0099528
p7
aV0160916
p8
aV0200087
p9
aV0105327
p10
aV0110725
p11
aV0118531
p12
aV0099334
p13
aV0124879
p14
aV0111333
p15
aV0099165
p16
aV0120777
p17
aV0118158
p18
aV0101329
p19
aV0098966
p20
aV0099726
p21
aV0109579
p22
aV0117608
p23
aV0172396
p24
aV0102558
p25
aV0106881
p26
aV0104412
p27
aV0104573
p28
aV0107387
p29
aV0104850
p30
aV0107711
p31
aV0104839
p32
aV0114825
p33
aV0104452
p34
aV0112572
p35
aV0134619
p36
aV0104427
p37
aV0102614
p38
aV0107473
p39
aV0100519
p40
aV0120866
p41
aV0110265
p42
aV0107665
p43
aV0178737
p44
aV0116130
p45
aV0145653
p46
aV0109555
p47
aV0112913
p48
aV0107151
p49
aV0133046
p50
a.(lp0
V0102719
p1
aV0103924
p2
aV0156934
p3
aV0104009
p4
aV0101635
p5
aV0100685
p6
aV0111693
p7
aV0114608
p8
aV0112688
p9
aV0115907
p10
aV0106912
p11
aV0104756
p12
aV0108149
p13
aV0103596
p14
aV0110763
p15
aV0119592
p16
aV0118755
p17
aV0110027
p18
aV0110308
p19
aV0180748
p20
aV0117110
p21
aV0145734
p22
aV0119891
p23
aV0120701
p24
aV0109592
p25
aV0103112
p26
aV0119791
p27
aV0144640
p28
aV0117011
p29
aV0115632
p30
aV0101829
p31
aV0105226
p32
aV0119896
p33
aV0100449
p34
aV0109676
p35
aV0118983
p36
aV0115986
p37
aV0110737
p38
aV0144168
p39
aV0103247
p40
aV0118845
p41
aV0115744
p42
aV0210234
p43
aV0110678
p44
aV0099615
p45
aV0159382
p46
aV0104561
p47
aV0120772
p48
aV0108185
p49
aV0110008
p50
a.(lp0
V0120265
p1
aV0116421
p2
aV0115438
p3
aV0117128
p4
aV0100212
p5
aV0104990
p6
aV0112819
p7
aV0102943
p8
aV0120524
p9
aV0100114
p10
aV0102744
p11
aV0110978
p12
aV0113442
p13
aV0105428
p14
aV0104040
p15
aV0101316
p16
aV0133363
p17
aV0104558
p18
aV0109439
p19
aV0142192
p20
aV0116704
p21
aV0110613
p22
aV0102587
p23
aV0164114
p24
aV0116324
p25
aV0110684
p26
aV0167427
p27
aV0100260
p28
aV0158811
p29
aV0113305
p30
aV0199683
p31
aV0102005
p32
aV0116514
p33
aV0102004
p34
aV0149691
p35
aV0157016
p36
aV0155711
p37
aV0109287
p38
aV0120596
p39
aV0166175
p40
aV0109759
p41
aV0118760
p42
aV0109402
p43
aV0106400
p44
aV0102782
p45
aV0131646
p46
aV0098987
p47
aV0104438
p48
aV0100318
p49
aV0099558
p50
a.(lp0
V0134067
p1
aV0113552
p2
aV0118996
p3
aV0109890
p4
aV0111797
p5
aV0116259
p6
aV0124901
p7
aV0103285
p8
aV0116731
p9
aV0105156
p10
aV0117628
p11
aV0110971
p12
aV0119123
p13
aV0103994
p14
aV0118966
p15
aV0147004
p16
aV0101698
p17
aV0108188
p18
aV0105128
p19
aV0108186
p20
aV0112966
p21
aV0110963
p22
aV0112857
p23
aV0110076
p24
aV0109370
p25
aV0102175
p26
aV0106452
p27
aV0108551
p28
aV0108101
p29
aV0099850
p30
aV0110213
p31
aV0110222
p32
aV0105378
p33
aV0263438
p34
aV0108265
p35
aV0115678
p36
aV0118570
p37
aV0107091
p38
aV0119994
p39
aV0108148
p40
aV0113114
p41
aV0211934
p42
aV0119053
p43
aV0112922
p44
aV0100232
p45
aV0099385
p46
aV0120662
p47
aV0117107
p48
aV0144814
p49
aV0113677
p50
a.(lp0
V0122541
p1
aV0109951
p2
aV0137338
p3
aV0102789
p4
aV0100485
p5
aV0102915
p6
aV0118892
p7
aV0102713
p8
aV0101258
p9
aV0102216
p10
aV0120716
p11
aV0101969
p12
aV0104237
p13
aV0120741
p14
aV0107426
p15
aV0104114
p16
aV0110631
p17
aV0107282
p18
aV0150992
p19
aV0110907
p20
aV0104549
p21
aV0107286
p22
aV0120514
p23
aV0102388
p24
aV0104299
p25
aV0120906
p26
aV0119109
p27
aV0106627
p28
aV0116790
p29
aV0110428
p30
aV0117119
p31
aV0100395
p32
aV0120834
p33
aV0118826
p34
aV0106664
p35
aV0107478
p36
aV0113613
p37
aV0099776
p38
aV0189584
p39
aV0144715
p40
aV0114345
p41
aV0119718
p42
aV0110081
p43
aV0118564
p44
aV0101787
p45
aV0125454
p46
aV0113799
p47
aV0119225
p48
aV0117002
p49
aV0111419
p50
a.(lp0
V0191043
p1
aV0102951
p2
aV0118301
p3
aV0114279
p4
aV0120152
p5
aV0100530
p6
aV0120724
p7
aV0117057
p8
aV0102316
p9
aV0124595
p10
aV0126604
p11
aV0120800
p12
aV0100486
p13
aV0112887
p14
aV0115561
p15
aV0103850
p16
aV0193253
p17
aV0118632
p18
aV0105585
p19
aV0119361
p20
aV0100740
p21
aV0106453
p22
aV0145893
p23
aV0118055
p24
aV0111579
p25
aV0110882
p26
aV0117958
p27
aV0116860
p28
aV0105699
p29
aV0110687
p30
aV0113690
p31
aV0132512
p32
aV0145503
p33
aV0116095
p34
aV0099819
p35
aV0134154
p36
aV0118767
p37
aV0106292
p38
aV0119280
p39
aV0126250
p40
aV0111732
p41
aV0107156
p42
aV0144201
p43
aV0104265
p44
aV0116552
p45
aV0109035
p46
aV0111418
p47
aV0119086
p48
aV0120764
p49
aV0102426
p50
a.(lp0
V0107983
p1
aV0107096
p2
aV0099204
p3
aV0108526
p4
aV0120710
p5
aV0116531
p6
aV0120820
p7
aV0111400
p8
aV0099012
p9
aV0114702
p10
aV0112744
p11
aV0117826
p12
aV0129280
p13
aV0117603
p14
aV0116707
p15
aV0110771
p16
aV0120646
p17
aV0107953
p18
aV0114496
p19
aV0162973
p20
aV0114134
p21
aV0102343
p22
aV0115862
p23
aV0108539
p24
aV0119670
p25
aV0109936
p26
aV0235060
p27
aV0119861
p28
aV0110759
p29
aV0119375
p30
aV0105217
p31
aV0105211
p32
aV0109688
p33
aV0103030
p34
aV0116260
p35
aV0123209
p36
aV0108451
p37
aV0099762
p38
aV0107756
p39
aV0111667
p40
aV0113010
p41
aV0120540
p42
aV0218553
p43
aV0099994
p44
aV0166943
p45
aV0111477
p46
aV0115819
p47
aV0109484
p48
aV0110123
p49
aV0120786
p50
a.(lp0
V0119210
p1
aV0102293
p2
aV0196857
p3
aV0099740
p4
aV0120728
p5
aV0151568
p6
aV0113526
p7
aV0104695
p8
aV0103793
p9
aV0117496
p10
aV0116151
p11
aV0102555
p12
aV0128332
p13
aV0104181
p14
aV0109842
p15
aV0111001
p16
aV0106341
p17
aV0112571
p18
aV0109198
p19
aV0109305
p20
aV0110093
p21
aV0107315
p22
aV0120604
p23
aV0101453
p24
aV0200071
p25
aV0106471
p26
aV0100234
p27
aV0104545
p28
aV0101786
p29
aV0120831
p30
aV0117774
p31
aV0119381
p32
aV0106941
p33
aV0100201
p34
aV0120776
p35
aV0112750
p36
aV0113097
p37
aV0120125
p38
aV0110516
p39
aV0099160
p40
aV0113451
p41
aV0107840
p42
aV0120868
p43
aV0118863
p44
aV0120857
p45
aV0115693
p46
aV0164108
p47
aV0117615
p48
aV0119196
p49
aV0195231
p50
a.(lp0
V0113321
p1
aV0101318
p2
aV0119448
p3
aV0116289
p4
aV0184526
p5
aV0120390
p6
aV0233422
p7
aV0114323
p8
aV0118539
p9
aV0100594
p10
aV0117372
p11
aV0118751
p12
aV0120520
p13
aV0119336
p14
aV0117364
p15
aV0105399
p16
aV0099800
p17
aV0120207
p18
aV0100928
p19
aV0110612
p20
aV0103923
p21
aV0106761
p22
aV0113347
p23
aV0107630
p24
aV0101821
p25
aV0120070
p26
aV0100828
p27
aV0105459
p28
aV0200654
p29
aV0116722
p30
aV0220832
p31
aV0105130
p32
aV0116410
p33
aV0120769
p34
aV0150915
p35
aV0162360
p36
aV0119311
p37
aV0134033
p38
aV0100168
p39
aV0119114
p40
aV0101627
p41
aV0110647
p42
aV0139362
p43
aV0110169
p44
aV0111323
p45
aV0109327
p46
aV0116743
p47
aV0119594
p48
aV0115851
p49
aV0118073
p50
a.(lp0
V0105017
p1
aV0102517
p2
aV0111201
p3
aV0105466
p4
aV0145547
p5
aV0160236
p6
aV0200469
p7
aV0163579
p8
aV0190419
p9
aV0110889
p10
aV0104926
p11
aV0099797
p12
aV0119227
p13
aV0116322
p14
aV0110538
p15
aV0120321
p16
aV0119142
p17
aV0156729
p18
aV0194314
p19
aV0497915
p20
aV0102598
p21
aV0141974
p22
aV0099426
p23
aV0116493
p24
aV0102164
p25
aV0114671
p26
aV0104647
p27
aV0113083
p28
aV0118541
p29
aV0119214
p30
aV0105636
p31
aV0165546
p32
aV0102181
p33
aV0140397
p34
aV0169880
p35
aV0116839
p36
aV0131566
p37
aV0108281
p38
aV0150216
p39
aV0110363
p40
aV0118804
p41
aV0118768
p42
aV0115710
p43
aV0120882
p44
aV0099817
p45
aV0202381
p46
aV0110570
p47
aV0116311
p48
aV0112553
p49
aV0133024
p50
a.(lp0
V0112302
p1
aV0112625
p2
aV0117550
p3
aV0103003
p4
aV0112757
p5
aV0135790
p6
aV0102592
p7
aV0103747
p8
aV0112541
p9
aV0118744
p10
aV0101420
p11
aV0120757
p12
aV0116684
p13
aV0125971
p14
aV0102303
p15
aV0114057
p16
aV0114885
p17
aV0105159
p18
aV0114272
p19
aV0107612
p20
aV0103791
p21
aV0103950
p22
aV0101615
p23
aV0105391
p24
aV0107889
p25
aV0105271
p26
aV0118647
p27
aV0104507
p28
aV0119590
p29
aV0120773
p30
aV0104511
p31
aV0109279
p32
aV0100142
p33
aV0120238
p34
aV0120029
p35
aV0099512
p36
aV0119784
p37
aV0170705
p38
aV0116581
p39
aV0106500
p40
aV0109067
p41
aV0109369
p42
aV0110917
p43
aV0105839
p44
aV0119152
p45
aV0103130
p46
aV0165078
p47
aV0105682
p48
aV0158493
p49
aV0142804
p50
a.(lp0
V0116448
p1
aV0106266
p2
aV0101545
p3
aV0206013
p4
aV0116168
p5
aV0112769
p6
aV0099697
p7
aV0127722
p8
aV0139151
p9
aV0116165
p10
aV0119792
p11
aV0112499
p12
aV0105616
p13
aV0107529
p14
aV0113537
p15
aV0100112
p16
aV0116320
p17
aV0119304
p18
aV0116353
p19
aV0106613
p20
aV0116768
p21
aV0102443
p22
aV0120112
p23
aV0114048
p24
aV0112679
p25
aV0101458
p26
aV0119080
p27
aV0111003
p28
aV0116378
p29
aV0155753
p30
aV0119517
p31
aV0162710
p32
aV0192657
p33
aV0101846
p34
aV0102469
p35
aV0102116
p36
aV0107468
p37
aV0116621
p38
aV0102460
p39
aV0109361
p40
aV0149601
p41
aV0104670
p42
aV0109015
p43
aV0118691
p44
aV0156794
p45
aV0120610
p46
aV0107004
p47
aV0142236
p48
aV0209189
p49
aV0104073
p50
a.(lp0
V0115644
p1
aV0107927
p2
aV0115645
p3
aV0112379
p4
aV0120389
p5
aV0103016
p6
aV0120618
p7
aV0104346
p8
aV0117283
p9
aV0142242
p10
aV0119809
p11
aV0120613
p12
aV0120706
p13
aV0123948
p14
aV0168501
p15
aV0112288
p16
aV0119887
p17
aV0116630
p18
aV0109288
p19
aV0161100
p20
aV0165773
p21
aV0113755
p22
aV0119324
p23
aV0164756
p24
aV0168987
p25
aV0115495
p26
aV0113762
p27
aV0119484
p28
aV0116571
p29
aV0120782
p30
aV0101748
p31
aV0120122
p32
aV0102609
p33
aV0105165
p34
aV0111341
p35
aV0100475
p36
aV0099611
p37
aV0100024
p38
aV0119879
p39
aV0188030
p40
aV0120449
p41
aV0102900
p42
aV0115781
p43
aV0116075
p44
aV0105219
p45
aV0109297
p46
aV0105402
p47
aV0136352
p48
aV0114234
p49
aV0103239
p50
a.(lp0
V0110329
p1
aV0098532
p2
aV0118750
p3
aV0149151
p4
aV0116502
p5
aV0114126
p6
aV0102802
p7
aV0102820
p8
aV0119848
p9
aV0106223
p10
aV0155388
p11
aV0108258
p12
aV0114563
p13
aV0118698
p14
aV0119506
p15
aV0107617
p16
aV0116426
p17
aV0119079
p18
aV0109493
p19
aV0119906
p20
aV0100280
p21
aV0112585
p22
aV0171685
p23
aV0133985
p24
aV0099654
p25
aV0113500
p26
aV0151691
p27
aV0101984
p28
aV0181627
p29
aV0133412
p30
aV0118900
p31
aV0109504
p32
aV0103035
p33
aV0122082
p34
aV0108442
p35
aV0100143
p36
aV0120036
p37
aV0115580
p38
aV0186253
p39
aV0110823
p40
aV0216986
p41
aV0104627
p42
aV0110146
p43
aV0104860
p44
aV0106936
p45
aV0099951
p46
aV0106834
p47
aV0221111
p48
aV0100224
p49
aV0103671
p50
a.(lp0
V0103129
p1
aV0109891
p2
aV0120603
p3
aV0101701
p4
aV0109440
p5
aV0117477
p6
aV0213682
p7
aV0222368
p8
aV0111112
p9
aV0150433
p10
aV0106557
p11
aV0122515
p12
aV0098999
p13
aV0107322
p14
aV0107209
p15
aV0120788
p16
aV0109450
p17
aV0122529
p18
aV0116736
p19
aV0103251
p20
aV0124179
p21
aV0120490
p22
aV0099902
p23
aV0099731
p24
aV0168172
p25
aV0115906
p26
aV0119937
p27
aV0142201
p28
aV0117791
p29
aV0110157
p30
aV0209463
p31
aV0120742
p32
aV0155722
p33
aV0119934
p34
aV0108327
p35
aV0117104
p36
aV0110365
p37
aV0099091
p38
aV0135007
p39
aV0099747
p40
aV0104107
p41
aV0120765
p42
aV0117658
p43
aV0173102
p44
aV0118829
p45
aV0120402
p46
aV0165859
p47
aV0188640
p48
aV0118736
p49
aV0104782
p50
a.(lp0
V0124102
p1
aV0107611
p2
aV0120692
p3
aV0119843
p4
aV0110546
p5
aV0126765
p6
aV0119832
p7
aV0105813
p8
aV0100680
p9
aV0104897
p10
aV0117768
p11
aV0117398
p12
aV0120836
p13
aV0109447
p14
aV0109758
p15
aV0104605
p16
aV0106873
p17
aV0109382
p18
aV0209933
p19
aV0151582
p20
aV0120703
p21
aV0104006
p22
aV0136244
p23
aV0112368
p24
aV0120512
p25
aV0142243
p26
aV0116823
p27
aV0120169
p28
aV0119640
p29
aV0101523
p30
aV0247613
p31
aV0116594
p32
aV0127311
p33
aV0099409
p34
aV0114916
p35
aV0165874
p36
aV0192194
p37
aV0164550
p38
aV0109306
p39
aV0101465
p40
aV0107563
p41
aV0102178
p42
aV0109415
p43
aV0102729
p44
aV0113729
p45
aV0113089
p46
aV0123987
p47
aV0120199
p48
aV0109120
p49
aV0102095
p50
a.(lp0
V0110353
p1
aV0099399
p2
aV0102984
p3
aV0119794
p4
aV0109480
p5
aV0117437
p6
aV0101649
p7
aV0161292
p8
aV0101590
p9
aV0113965
p10
aV0139876
p11
aV0119783
p12
aV0162866
p13
aV0113269
p14
aV0120373
p15
aV0103110
p16
aV0130444
p17
aV0106233
p18
aV0108592
p19
aV0115725
p20
aV0109771
p21
aV0119248
p22
aV0113303
p23
aV0177242
p24
aV0099040
p25
aV0119527
p26
aV0111252
p27
aV0118836
p28
aV0110557
p29
aV0102721
p30
aV0101811
p31
aV0109162
p32
aV0102722
p33
aV0116752
p34
aV0164085
p35
aV0113703
p36
aV0101628
p37
aV0099729
p38
aV0109578
p39
aV0101694
p40
aV0114938
p41
aV0102011
p42
aV0100469
p43
aV0103805
p44
aV0111094
p45
aV0112445
p46
aV0165643
p47
aV0120894
p48
aV0101991
p49
aV0116414
p50
a.(lp0
V0099669
p1
aV0142233
p2
aV0104053
p3
aV0109723
p4
aV0117965
p5
aV0138703
p6
aV0120576
p7
aV0099587
p8
aV0201265
p9
aV0113375
p10
aV0101428
p11
aV0119709
p12
aV0099277
p13
aV0118859
p14
aV0109255
p15
aV0113464
p16
aV0113362
p17
aV0114609
p18
aV0099073
p19
aV0106339
p20
aV0101898
p21
aV0120376
p22
aV0116308
p23
aV0099575
p24
aV0245192
p25
aV0117991
p26
aV0109020
p27
aV0172627
p28
aV0102048
p29
aV0117718
p30
aV0120394
p31
aV0119632
p32
aV0119095
p33
aV0117091
p34
aV0162480
p35
aV0160401
p36
aV0114863
p37
aV0187231
p38
aV0109838
p39
aV0142237
p40
aV0098967
p41
aV0102395
p42
aV0108395
p43
aV0101020
p44
aV0138414
p45
aV0204709
p46
aV0113538
p47
aV0113936
p48
aV0118623
p49
aV0112602
p50
a.(lp0
V0106455
p1
aV0109219
p2
aV0188766
p3
aV0109403
p4
aV0246729
p5
aV0109093
p6
aV0114732
p7
aV0203408
p8
aV0114151
p9
aV0118002
p10
aV0202559
p11
aV0114086
p12
aV0120725
p13
aV0117468
p14
aV0216817
p15
aV0120142
p16
aV0120408
p17
aV0118001
p18
aV0120683
p19
aV0107413
p20
aV0110066
p21
aV0126234
p22
aV0113691
p23
aV0126871
p24
aV0100827
p25
aV0104139
p26
aV0109134
p27
aV0119905
p28
aV0102825
p29
aV0115738
p30
aV0112637
p31
aV0101531
p32
aV0110604
p33
aV0099566
p34
aV0216165
p35
aV0210727
p36
aV0165494
p37
aV0100107
p38
aV0114996
p39
aV0110054
p40
aV0102202
p41
aV0112435
p42
aV0115940
p43
aV0110438
p44
aV0119889
p45
aV0111309
p46
aV0120823
p47
aV0106966
p48
aV0142241
p49
aV0120133
p50
a.(lp0
V0120323
p1
aV0108656
p2
aV0103105
p3
aV0140796
p4
aV0117561
p5
aV0116767
p6
aV0107750
p7
aV0188863
p8
aV0112255
p9
aV0114733
p10
aV0109417
p11
aV0112778
p12
aV0116147
p13
aV0115493
p14
aV0115509
p15
aV0119859
p16
aV0106579
p17
aV0107664
p18
aV0117102
p19
aV0120723
p20
aV0116508
p21
aV0104802
p22
aV0106393
p23
aV0113448
p24
aV0105107
p25
aV0115012
p26
aV0102411
p27
aV1125254
p28
aV0101902
p29
aV0113720
p30
aV0111194
p31
aV0117093
p32
aV0106309
p33
aV0105197
p34
aV0111190
p35
aV0103007
p36
aV0115472
p37
aV0111019
p38
aV0111068
p39
aV0107212
p40
aV0118818
p41
aV0115994
p42
aV0099818
p43
aV0103978
p44
aV0119062
p45
aV0119778
p46
aV0115610
p47
aV0116404
p48
aV0112495
p49
aV0102757
p50
a.(lp0
V0110399
p1
aV0111256
p2
aV0101746
p3
aV0107166
p4
aV0113153
p5
aV0163818
p6
aV0120383
p7
aV0142240
p8
aV0119734
p9
aV0106926
p10
aV0159485
p11
aV0111048
p12
aV0112606
p13
aV0100912
p14
aV0108517
p15
aV0118040
p16
aV0105602
p17
aV0100442
p18
aV0169299
p19
aV0117924
p20
aV0114928
p21
aV0103125
p22
aV0113617
p23
aV0111845
p24
aV0120722
p25
aV0111653
p26
aV0103976
p27
aV0152836
p28
aV0119305
p29
aV0111835
p30
aV0118866
p31
aV0110305
p32
aV0102849
p33
aV0099581
p34
aV0122143
p35
aV0103184
p36
aV0107745
p37
aV0181530
p38
aV0102456
p39
aV0102753
p40
aV0124207
p41
aV0114808
p42
aV0112365
p43
aV0103262
p44
aV0108187
p45
aV0107474
p46
aV0120747
p47
aV0149723
p48
aV0110944
p49
aV0102103
p50
a.(lp0
V0123034
p1
aV0214915
p2
aV0101962
p3
aV0109021
p4
aV0112767
p5
aV0102220
p6
aV0100911
p7
aV0120522
p8
aV0220644
p9
aV0109376
p10
aV0106215
p11
aV0099266
p12
aV0109962
p13
aV0160620
p14
aV0104928
p15
aV0220656
p16
aV0107668
p17
aV0102307
p18
aV0113360
p19
aV0113149
p20
aV0099710
p21
aV0142181
p22
aV0120107
p23
aV0157044
p24
aV0167752
p25
aV0103704
p26
aV0102898
p27
aV0110391
p28
aV0115676
p29
aV0102629
p30
aV0105001
p31
aV0116650
p32
aV0111293
p33
aV0102065
p34
aV0101985
p35
aV0113187
p36
aV0099878
p37
aV0102797
p38
aV0101988
p39
aV0119815
p40
aV0099429
p41
aV0107057
p42
aV0177511
p43
aV0110667
p44
aV0106535
p45
aV0108504
p46
aV0113280
p47
aV0111793
p48
aV0120699
p49
aV0097910
p50
a.(lp0
V0105450
p1
aV0110588
p2
aV0109770
p3
aV0221344
p4
aV0114095
p5
aV0100053
p6
aV0125678
p7
aV0119092
p8
aV0104279
p9
aV0162625
p10
aV0118015
p11
aV0113416
p12
aV0206921
p13
aV0152015
p14
aV0104155
p15
aV0112438
p16
aV0119642
p17
aV0262246
p18
aV0119576
p19
aV0114317
p20
aV0107002
p21
aV0116745
p22
aV0118064
p23
aV0106305
p24
aV0142238
p25
aV0116692
p26
aV0127626
p27
aV0119249
p28
aV0171865
p29
aV0130236
p30
aV0119239
p31
aV0115487
p32
aV0160513
p33
aV0119428
p34
aV0107626
p35
aV0142244
p36
aV0133122
p37
aV0115836
p38
aV0166252
p39
aV0101326
p40
aV0105750
p41
aV0104905
p42
aV0117688
p43
aV0112313
p44
aV0115633
p45
aV0119125
p46
aV0111590
p47
aV0116754
p48
aV0099316
p49
aV0109206
p50
a.(lp0
V0117359
p1
aV0125879
p2
aV0102590
p3
aV0116240
p4
aV0177507
p5
aV0116041
p6
aV0174330
p7
aV0114108
p8
aV0215369
p9
aV0162426
p10
aV0117071
p11
aV0105411
p12
aV0207341
p13
aV0119987
p14
aV0113947
p15
aV0113188
p16
aV0110361
p17
aV0105916
p18
aV0162830
p19
aV0119574
p20
aV0169145
p21
aV0108207
p22
aV0116606
p23
aV0101301
p24
aV0120714
p25
aV0116827
p26
aV0103872
p27
aV0106937
p28
aV0120317
p29
aV0154443
p30
aV0106880
p31
aV0113682
p32
aV0110395
p33
aV0119828
p34
aV0117905
p35
aV0107247
p36
aV0137439
p37
aV0106379
p38
aV0102397
p39
aV0138487
p40
aV0103295
p41
aV0111666
p42
aV0120510
p43
aV0213969
p44
aV0114658
p45
aV0107863
p46
aV0099108
p47
aV0114437
p48
aV0167137
p49
aV0167331
p50
a.(lp0
V0119509
p1
aV0099292
p2
aV0117891
p3
aV0106257
p4
aV0103783
p5
aV0107920
p6
aV0117350
p7
aV0105851
p8
aV0137386
p9
aV0107079
p10
aV0106335
p11
aV0100665
p12
aV0111543
p13
aV0165499
p14
aV0112342
p15
aV0113828
p16
aV0107594
p17
aV0205735
p18
aV0100602
p19
aV0109665
p20
aV0100491
p21
aV0105792
p22
aV0117909
p23
aV0109731
p24
aV0106466
p25
aV0104046
p26
aV0099018
p27
aV0102579
p28
aV0120670
p29
aV0116506
p30
aV0109443
p31
aV0116059
p32
aV0108410
p33
aV0101492
p34
aV0105569
p35
aV0107504
p36
aV0138541
p37
aV0119626
p38
aV0102593
p39
aV0113896
p40
aV0172726
p41
aV0100369
p42
aV0116783
p43
aV0108328
p44
aV0116676
p45
aV0110490
p46
aV0104567
p47
aV0160429
p48
aV0106521
p49
aV0119892
p50
a.(lp0
V0128378
p1
aV0115813
p2
aV0113133
p3
aV0181960
p4
aV0166556
p5
aV0188503
p6
aV0104352
p7
aV0123092
p8
aV0115742
p9
aV0115033
p10
aV0106544
p11
aV0108289
p12
aV0116442
p13
aV0108252
p14
aV0120471
p15
aV0107027
p16
aV0101625
p17
aV0162930
p18
aV0123324
p19
aV0115650
p20
aV0111187
p21
aV0114099
p22
aV0113211
p23
aV0115530
p24
aV0120318
p25
aV0234217
p26
aV0116422
p27
aV0164917
p28
aV0104765
p29
aV0113851
p30
aV0197569
p31
aV0117781
p32
aV0115471
p33
aV0119711
p34
aV0099612
p35
aV0174204
p36
aV0119572
p37
aV0105191
p38
aV0119630
p39
aV0118577
p40
aV0099652
p41
aV0198837
p42
aV0119723
p43
aV0133906
p44
aV0120594
p45
aV0112702
p46
aV0101733
p47
aV0120643
p48
aV0102368
p49
aV0105575
p50
a.(lp0
V0161023
p1
aV0100873
p2
aV0109575
p3
aV0106660
p4
aV0102369
p5
aV0142239
p6
aV0119219
p7
aV0126810
p8
aV0267116
p9
aV0105859
p10
aV0120521
p11
aV0114231
p12
aV0118663
p13
aV0165831
p14
aV0128239
p15
aV0103186
p16
aV0158030
p17
aV0151572
p18
aV0103176
p19
aV0119578
p20
aV0099128
p21
aV0118163
p22
aV0142234
p23
aV0109916
p24
aV0141105
p25
aV0124770
p26
aV0115856
p27
aV0118566
p28
aV0117653
p29
aV0120034
p30
aV0126859
p31
aV0106868
p32
aV0109906
p33
aV0111807
p34
aV0190798
p35
aV0101356
p36
aV0105483
p37
aV0118930
p38
aV0104418
p39
aV0114055
p40
aV0109781
p41
aV0104008
p42
aV0174268
p43
aV0101004
p44
aV0100196
p45
aV0233856
p46
aV1623780
p47
aV0102288
p48
aV0110939
p49
aV0119471
p50
a.(lp0
V0119665
p1
aV0114753
p2
aV0113725
p3
aV0103253
p4
aV0109791
p5
aV0101891
p6
aV0120530
p7
aV0102351
p8
aV0128133
p9
aV0112873
p10
aV0119910
p11
aV0104321
p12
aV0115669
p13
aV0170259
p14
aV0100631
p15
aV0105481
p16
aV0109321
p17
aV0109959
p18
aV0099484
p19
aV0118586
p20
aV0120813
p21
aV0119577
p22
aV0168794
p23
aV0118756
p24
aV0102655
p25
aV0119385
p26
aV0117797
p27
aV0138874
p28
aV0173080
p29
aV0107009
p30
aV0116275
p31
aV0120481
p32
aV0108339
p33
aV0140825
p34
aV0099578
p35
aV0110186
p36
aV0118851
p37
aV0266075
p38
aV0120598
p39
aV0102045
p40
aV0172669
p41
aV0115658
p42
aV0115005
p43
aV0111359
p44
aV0113808
p45
aV0116163
p46
aV0105652
p47
aV0100681
p48
aV0099768
p49
aV0106753
p50
a.(lp0
V0114798
p1
aV0105888
p2
aV0104662
p3
aV0115899
p4
aV0145529
p5
aV0099173
p6
aV0104812
p7
aV0100046
p8
aV0113081
p9
aV0117427
p10
aV0105187
p11
aV0161492
p12
aV0109010
p13
aV0112389
p14
aV0118840
p15
aV0100666
p16
aV0101373
p17
aV0109798
p18
aV0111640
p19
aV0100747
p20
aV0102421
p21
aV0111786
p22
aV0118113
p23
aV0104743
p24
aV0156610
p25
aV0107613
p26
aV0127296
p27
aV0116851
p28
aV0118682
p29
aV0118976
p30
aV0110255
p31
aV0108624
p32
aV0102690
p33
aV0096875
p34
aV0101273
p35
aV0105691
p36
aV0197094
p37
aV0114788
p38
aV0119054
p39
aV0102522
p40
aV0127919
p41
aV0111205
p42
aV0110197
p43
aV0102687
p44
aV0119365
p45
aV0116014
p46
aV0201840
p47
aV0098994
p48
aV0111800
p49
aV0105185
p50
a.(lp0
V0272142
p1
aV0105619
p2
aV0185584
p3
aV0120254
p4
aV0120536
p5
aV0105242
p6
aV0120687
p7
aV0108593
p8
aV0110064
p9
aV0105328
p10
aV0120401
p11
aV0383678
p12
aV0120642
p13
aV0113074
p14
aV0162348
p15
aV0119512
p16
aV0106342
p17
aV0119644
p18
aV0109965
p19
aV0167132
p20
aV0125128
p21
aV0168080
p22
aV0104808
p23
aV0120088
p24
aV0097106
p25
aV0166653
p26
aV0099812
p27
aV0103670
p28
aV0119863
p29
aV0114697
p30
aV0164221
p31
aV0220806
p32
aV0099750
p33
aV0117715
p34
aV0109340
p35
aV0118172
p36
aV0100625
p37
aV0117473
p38
aV0101371
p39
aV0104014
p40
aV0110620
p41
aV0187819
p42
aV0103002
p43
aV0143334
p44
aV0151121
p45
aV0220016
p46
aV0116852
p47
aV0120899
p48
aV0100963
p49
aV0107606
p50
a.(lp0
V0149291
p1
aV0115832
p2
aV0104804
p3
aV0110296
p4
aV0108596
p5
aV0117238
p6
aV0112800
p7
aV0118678
p8
aV0108311
p9
aV0109066
p10
aV0103045
p11
aV0113463
p12
aV0103743
p13
aV0116247
p14
aV0101595
p15
aV0113158
p16
aV0105810
p17
aV0120274
p18
aV0111403
p19
aV0118138
p20
aV0119326
p21
aV0157183
p22
aV0241073
p23
aV0102050
p24
aV0120257
p25
aV0106779
p26
aV0225535
p27
aV0112536
p28
aV0110722
p29
aV0112366
p30
aV0102940
p31
aV0210843
p32
aV0119347
p33
aV0120838
p34
aV0100151
p35
aV0107101
p36
aV0120678
p37
aV0104609
p38
aV0102813
p39
aV0252486
p40
aV0122961
p41
aV0285665
p42
aV0195002
p43
aV0107214
p44
aV0101412
p45
aV0291855
p46
aV0138467
p47
aV0120550
p48
aV0118702
p49
aV0110689
p50
a.(lp0
V0104770
p1
aV0116592
p2
aV0167926
p3
aV0106877
p4
aV0113443
p5
aV0116791
p6
aV0100200
p7
aV0116953
p8
aV0116141
p9
aV0183503
p10
aV0119893
p11
aV0103617
p12
aV0119657
p13
aV0106315
p14
aV0177747
p15
aV0118554
p16
aV0160672
p17
aV0120793
p18
aV0170544
p19
aV0103962
p20
aV0143746
p21
aV0102958
p22
aV0114690
p23
aV0118523
p24
aV0107130
p25
aV0112443
p26
aV0116882
p27
aV0122648
p28
aV0100301
p29
aV0120645
p30
aV0116407
p31
aV0103773
p32
aV0120584
p33
aV0106684
p34
aV0118772
p35
aV0107165
p36
aV0112895
p37
aV0101455
p38
aV0114571
p39
aV0162023
p40
aV0102631
p41
aV0105789
p42
aV0201290
p43
aV0158583
p44
aV0120479
p45
aV0116488
p46
aV0100087
p47
aV0098063
p48
aV0120214
p49
aV0110922
p50
a.(lp0
V0118635
p1
aV0119279
p2
aV0120118
p3
aV0292246
p4
aV0113967
p5
aV0106866
p6
aV0109514
p7
aV0211126
p8
aV0118588
p9
aV0175536
p10
aV0200267
p11
aV0104522
p12
aV0099637
p13
aV0112619
p14
aV0114663
p15
aV0337611
p16
aV0116384
p17
aV0447484
p18
aV0104350
p19
aV0107148
p20
aV0110201
p21
aV0105019
p22
aV0118864
p23
aV0101597
p24
aV0140377
p25
aV0159730
p26
aV0107321
p27
aV0112556
p28
aV0170351
p29
aV0174931
p30
aV0171851
p31
aV0159421
p32
aV0112427
p33
aV0120861
p34
aV0179841
p35
aV0105622
p36
aV0099026
p37
aV0185284
p38
aV0220726
p39
aV0159272
p40
aV0144557
p41
aV0118894
p42
aV0107447
p43
aV0173081
p44
aV0112537
p45
aV0118020
p46
aV0111218
p47
aV0119746
p48
aV0117690
p49
aV0160338
p50
a.(lp0
V0118980
p1
aV0111173
p2
aV0102848
p3
aV0103935
p4
aV0118200
p5
aV0102465
p6
aV0118925
p7
aV0111573
p8
aV0208606
p9
aV0129136
p10
aV0110189
p11
aV0119872
p12
aV0106655
p13
aV0117284
p14
aV0118787
p15
aV0117609
p16
aV0099291
p17
aV0109783
p18
aV0110892
p19
aV0110524
p20
aV0117214
p21
aV0134928
p22
aV0156639
p23
aV0146468
p24
aV0255289
p25
aV0110097
p26
aV0106913
p27
aV0102500
p28
aV0107311
p29
aV0107443
p30
aV0113028
p31
aV0108633
p32
aV0120391
p33
aV0110832
p34
aV0109000
p35
aV0156849
p36
aV0107358
p37
aV0101252
p38
aV0201631
p39
aV0183992
p40
aV0209174
p41
aV0103827
p42
aV0183306
p43
aV0102818
p44
aV0120051
p45
aV0107685
p46
aV0102571
p47
aV0104283
p48
aV0108366
p49
aV0108000
p50
a.(lp0
V0104745
p1
aV0100557
p2
aV0120835
p3
aV0138590
p4
aV0166604
p5
aV0194722
p6
aV0108317
p7
aV0147599
p8
aV0116341
p9
aV0097775
p10
aV0115067
p11
aV0115886
p12
aV0105824
p13
aV0100611
p14
aV0186730
p15
aV0104663
p16
aV0113403
p17
aV0172234
p18
aV0117070
p19
aV0108053
p20
aV0113142
p21
aV0104362
p22
aV0129023
p23
aV0254463
p24
aV0099816
p25
aV0117193
p26
aV0104028
p27
aV0102258
p28
aV0100134
p29
aV0192377
p30
aV0116293
p31
aV0118043
p32
aV0103069
p33
aV0190506
p34
aV0146271
p35
aV0104119
p36
aV0097884
p37
aV0277605
p38
aV0120456
p39
aV0120478
p40
aV0139615
p41
aV0120357
p42
aV0157075
p43
aV0103190
p44
aV0120211
p45
aV0267548
p46
aV0119629
p47
aV0102860
p48
aV0104503
p49
aV0205190
p50
a.(lp0
V0113194
p1
aV0104581
p2
aV0119263
p3
aV0109920
p4
aV0122768
p5
aV0108026
p6
aV0120001
p7
aV0161010
p8
aV0158302
p9
aV0129884
p10
aV0100161
p11
aV0168123
p12
aV0103969
p13
aV0106447
p14
aV0118673
p15
aV0100691
p16
aV0184005
p17
aV0102071
p18
aV0118117
p19
aV0101798
p20
aV0101606
p21
aV0117582
p22
aV0109099
p23
aV0137799
p24
aV0118734
p25
aV0248547
p26
aV0106559
p27
aV0126261
p28
aV0220757
p29
aV0114726
p30
aV0120448
p31
aV0103303
p32
aV0104753
p33
aV0158692
p34
aV0109683
p35
aV0116763
p36
aV0206334
p37
aV0119247
p38
aV0113580
p39
aV0112854
p40
aV0107875
p41
aV0101763
p42
aV0211634
p43
aV0140348
p44
aV0120275
p45
aV0109374
p46
aV0117056
p47
aV0114084
p48
aV0156587
p49
aV0179182
p50
a.(lp0
V0117202
p1
aV0116739
p2
aV0114917
p3
aV0114306
p4
aV0099310
p5
aV0099450
p6
aV0214178
p7
aV0102932
p8
aV0100303
p9
aV0189142
p10
aV0119565
p11
aV0105032
p12
aV0230347
p13
aV0106505
p14
aV0102703
p15
aV0120303
p16
aV0119522
p17
aV0172519
p18
aV0106693
p19
aV0107623
p20
aV0164711
p21
aV0120856
p22
aV0113849
p23
aV0114941
p24
aV0156515
p25
aV0101588
p26
aV0109412
p27
aV0109739
p28
aV0107999
p29
aV0120037
p30
aV0199777
p31
aV0113376
p32
aV0118044
p33
aV0119550
p34
aV0113542
p35
aV0120108
p36
aV0289424
p37
aV0129908
p38
aV0169222
p39
aV0164877
p40
aV0184872
p41
aV0101268
p42
aV0108388
p43
aV0099733
p44
aV0104774
p45
aV0156901
p46
aV0119677
p47
aV0101317
p48
aV0104837
p49
aV0160509
p50
a.(lp0
V0106330
p1
aV0118785
p2
aV0210302
p3
aV0119465
p4
aV0105790
p5
aV0290937
p6
aV0192701
p7
aV0113971
p8
aV0109129
p9
aV0114113
p10
aV0120627
p11
aV0099043
p12
aV0137201
p13
aV0103927
p14
aV0140399
p15
aV0110299
p16
aV0118764
p17
aV0123385
p18
aV0119947
p19
aV0100129
p20
aV0118957
p21
aV0110942
p22
aV0131436
p23
aV0108275
p24
aV0128137
p25
aV0101025
p26
aV0127516
p27
aV0119901
p28
aV0383177
p29
aV0169302
p30
aV0119547
p31
aV0111549
p32
aV0253884
p33
aV0106833
p34
aV0265730
p35
aV0105572
p36
aV0130192
p37
aV0119502
p38
aV0119560
p39
aV0101279
p40
aV0116931
p41
aV0111552
p42
aV0114704
p43
aV0104377
p44
aV0104771
p45
aV0104892
p46
aV0100639
p47
aV0111701
p48
aV0126344
p49
aV0163563
p50
a.(lp0
V0136153
p1
aV0118742
p2
aV0120066
p3
aV0120018
p4
aV0235154
p5
aV0139564
p6
aV0106504
p7
aV0168449
p8
aV0137100
p9
aV0119278
p10
aV0109913
p11
aV0102032
p12
aV0121442
p13
aV0180037
p14
aV0098606
p15
aV0110852
p16
aV0162958
p17
aV0119285
p18
aV0119327
p19
aV0182251
p20
aV0255306
p21
aV0118644
p22
aV0106417
p23
aV0110891
p24
aV0164368
p25
aV0184503
p26
aV0112945
p27
aV0172761
p28
aV0168740
p29
aV0117342
p30
aV0123221
p31
aV0196635
p32
aV0113199
p33
aV0112604
p34
aV0107625
p35
aV0116102
p36
aV0113858
p37
aV0106260
p38
aV0108334
p39
aV0120026
p40
aV0100281
p41
aV0151479
p42
aV0118927
p43
aV0100623
p44
aV0100973
p45
aV0103243
p46
aV0112446
p47
aV0116447
p48
aV0119494
p49
aV0263074
p50
a.(lp0
V0210659
p1
aV0105287
p2
aV0167059
p3
aV0142316
p4
aV0299502
p5
aV0119209
p6
aV0107349
p7
aV0113080
p8
aV0113737
p9
aV0098375
p10
aV0105811
p11
aV0111862
p12
aV0107333
p13
aV3189256
p14
aV0114844
p15
aV0099524
p16
aV0189153
p17
aV0107146
p18
aV0103838
p19
aV0119272
p20
aV0118834
p21
aV0114432
p22
aV0118100
p23
aV0100604
p24
aV0102573
p25
aV0103601
p26
aV0101831
p27
aV0140090
p28
aV0101616
p29
aV0108565
p30
aV0119068
p31
aV0109747
p32
aV0099364
p33
aV0125507
p34
aV0116269
p35
aV0106827
p36
aV0177347
p37
aV0120867
p38
aV0108583
p39
aV0121989
p40
aV2330098
p41
aV0138987
p42
aV0119427
p43
aV0119932
p44
aV0176426
p45
aV0115042
p46
aV0098486
p47
aV0119510
p48
aV0203672
p49
aV0101660
p50
a.(lp0
V0119819
p1
aV0100152
p2
aV0223530
p3
aV0105385
p4
aV0115951
p5
aV0112387
p6
aV0103328
p7
aV0109357
p8
aV0113313
p9
aV0104147
p10
aV0128977
p11
aV0101309
p12
aV0118018
p13
aV0107566
p14
aV0119717
p15
aV0117555
p16
aV0178988
p17
aV0213121
p18
aV0169164
p19
aV0278501
p20
aV0189630
p21
aV0116833
p22
aV0102913
p23
aV0105534
p24
aV0120878
p25
aV0285940
p26
aV0113939
p27
aV0114303
p28
aV0119019
p29
aV0109593
p30
aV0120186
p31
aV0120531
p32
aV0112483
p33
aV0120491
p34
aV0110712
p35
aV0115822
p36
aV0105316
p37
aV0116690
p38
aV0100663
p39
aV0104870
p40
aV0109942
p41
aV0102701
p42
aV0107471
p43
aV0110463
p44
aV0116295
p45
aV0102749
p46
aV0116390
p47
aV0113557
p48
aV0119098
p49
aV0112480
p50
a.(lp0
V0368400
p1
aV0217679
p2
aV0175877
p3
aV0482389
p4
aV0145505
p5
aV0355169
p6
aV0146990
p7
aV0118686
p8
aV0116950
p9
aV0107225
p10
aV0108074
p11
aV0104602
p12
aV0120619
p13
aV0116729
p14
aV0120366
p15
aV0102812
p16
aV0116985
p17
aV0252607
p18
aV0116714
p19
aV0106450
p20
aV0113674
p21
aV0176422
p22
aV0185101
p23
aV0240084
p24
aV0240425
p25
aV0120865
p26
aV0109028
p27
aV0258960
p28
aV0113014
p29
aV0353975
p30
aV0100496
p31
aV0149215
p32
aV0112634
p33
aV0115040
p34
aV0115834
p35
aV0100822
p36
aV0113510
p37
aV0116635
p38
aV0107819
p39
aV0118906
p40
aV0108560
p41
aV0103926
p42
aV0118901
p43
aV0119346
p44
aV0101783
p45
aV0211286
p46
aV0100613
p47
aV0119557
p48
aV0109034
p49
aV0114296
p50
a.(lp0
V0112749
p1
aV0106949
p2
aV0106792
p3
aV0109454
p4
aV0117069
p5
aV0100470
p6
aV0120013
p7
aV0101444
p8
aV0116828
p9
aV0134969
p10
aV0168043
p11
aV0102996
p12
aV0119743
p13
aV0116036
p14
aV0117135
p15
aV0111488
p16
aV0104922
p17
aV0099460
p18
aV0123328
p19
aV0156460
p20
aV0113649
p21
aV0101591
p22
aV0155197
p23
aV0118670
p24
aV0102279
p25
aV0106258
p26
aV0177746
p27
aV0210717
p28
aV0114137
p29
aV0119989
p30
aV0108167
p31
aV0349113
p32
aV0139872
p33
aV0102583
p34
aV0120090
p35
aV0100649
p36
aV0119981
p37
aV0102817
p38
aV0153032
p39
aV0105599
p40
aV0353496
p41
aV0125209
p42
aV0176415
p43
aV0099691
p44
aV0128292
p45
aV0102969
p46
aV0111470
p47
aV0107930
p48
aV2149814
p49
aV0108260
p50
a.