(lp0
V0468569
p1
aV1375666
p2
aV1345836
p3
aV0816692
p4
aV0372784
p5
aV0848228
p6
aV1853728
p7
aV0361748
p8
aV0407887
p9
aV0499549
p10
aV0482571
p11
aV0993846
p12
aV1130884
p13
aV0434409
p14
aV0910970
p15
aV2015381
p16
aV0371746
p17
aV1392170
p18
aV1049413
p19
aV0401792
p20
aV1010048
p21
aV0903624
p22
aV2488496
p23
aV0477348
p24
aV2267998
p25
aV1392190
p26
aV0416449
p27
aV1454468
p28
aV1119646
p29
aV1205489
p30
aV1201607
p31
aV1300854
p32
aV0435761
p33
aV0947798
p34
aV0770828
p35
aV0800369
p36
aV0480249
p37
aV1045658
p38
aV1675434
p39
aV3659388
p40
aV0121766
p41
aV1228705
p42
aV1136608
p43
aV0383574
p44
aV1877832
p45
aV1270798
p46
aV0458339
p47
aV1074638
p48
aV1843866
p49
aV2278388
p50
a.(lp0
V1504320
p1
aV2084970
p2
aV0418279
p3
aV0440963
p4
aV0892769
p5
aV1951264
p6
aV0796366
p7
aV2395427
p8
aV1170358
p9
aV1285016
p10
aV0382932
p11
aV1663202
p12
aV0449088
p13
aV0988045
p14
aV0936501
p15
aV0457430
p16
aV0816711
p17
aV0381061
p18
aV1637725
p19
aV1670345
p20
aV1446714
p21
aV2024544
p22
aV0421715
p23
aV2582802
p24
aV1024648
p25
aV0948470
p26
aV1631867
p27
aV0454876
p28
aV0780504
p29
aV0758758
p30
aV0369610
p31
aV1250777
p32
aV2294629
p33
aV1276104
p34
aV1981115
p35
aV1219289
p36
aV2802144
p37
aV2562232
p38
aV0829482
p39
aV1392214
p40
aV1232829
p41
aV0467406
p42
aV1318514
p43
aV2096673
p44
aV0450259
p45
aV0330373
p46
aV1408101
p47
aV1323594
p48
aV1483013
p49
aV0409459
p50
a.(lp0
V1156398
p1
aV0413300
p2
aV0376994
p3
aV0945513
p4
aV0469494
p5
aV1663662
p6
aV1022603
p7
aV1298650
p8
aV1570728
p9
aV1411697
p10
aV1798709
p11
aV0458525
p12
aV2310332
p13
aV0373889
p14
aV1343092
p15
aV0206634
p16
aV1229238
p17
aV1800241
p18
aV1659337
p19
aV0425112
p20
aV0478970
p21
aV0449059
p22
aV0356910
p23
aV1499658
p24
aV0448157
p25
aV1840309
p26
aV0454921
p27
aV1099212
p28
aV1535108
p29
aV0926084
p30
aV1515091
p31
aV1430132
p32
aV1291584
p33
aV2179136
p34
aV2872732
p35
aV0790636
p36
aV0417741
p37
aV0887912
p38
aV0367882
p39
aV0407304
p40
aV1568346
p41
aV0830515
p42
aV0337978
p43
aV1535109
p44
aV3460252
p45
aV1872181
p46
aV0470752
p47
aV1454029
p48
aV0800080
p49
aV0367594
p50
a.(lp0
V2103281
p1
aV1979320
p2
aV1399103
p3
aV2911666
p4
aV0382625
p5
aV1055369
p6
aV0765429
p7
aV1790864
p8
aV2872718
p9
aV1723121
p10
aV0360717
p11
aV2713180
p12
aV1951265
p13
aV0443706
p14
aV1457767
p15
aV0441773
p16
aV0405422
p17
aV1245492
p18
aV1014759
p19
aV0780536
p20
aV0942385
p21
aV1605783
p22
aV1637688
p23
aV1905041
p24
aV0831387
p25
aV0398286
p26
aV1060277
p27
aV0493464
p28
aV2245084
p29
aV2379713
p30
aV0443543
p31
aV0478311
p32
aV0443453
p33
aV1690953
p34
aV0363771
p35
aV2820852
p36
aV0458352
p37
aV1596343
p38
aV2980516
p39
aV1371111
p40
aV1650062
p41
aV1190080
p42
aV1210166
p43
aV0438488
p44
aV1259521
p45
aV0408236
p46
aV1282140
p47
aV1217209
p48
aV0840361
p49
aV1542344
p50
a.(lp0
V0446029
p1
aV1772341
p2
aV0396269
p3
aV0964517
p4
aV0351283
p5
aV1065073
p6
aV1632708
p7
aV0317219
p8
aV0454848
p9
aV1068680
p10
aV1320253
p11
aV1231583
p12
aV2294449
p13
aV1306980
p14
aV0405094
p15
aV1193138
p16
aV1409024
p17
aV1182345
p18
aV1907668
p19
aV0120667
p20
aV1895587
p21
aV1104001
p22
aV2582846
p23
aV0388795
p24
aV0399201
p25
aV0425210
p26
aV0317919
p27
aV0496806
p28
aV1587310
p29
aV0462538
p30
aV1490017
p31
aV0910936
p32
aV0822854
p33
aV0433035
p34
aV2788710
p35
aV0887883
p36
aV0970179
p37
aV2381249
p38
aV0389860
p39
aV1125849
p40
aV2109248
p41
aV1707386
p42
aV0399295
p43
aV1764651
p44
aV0944835
p45
aV1748122
p46
aV0386588
p47
aV1403865
p48
aV0453467
p49
aV0449467
p50
a.(lp0
V1453405
p1
aV0477347
p2
aV0489099
p3
aV0790724
p4
aV0379786
p5
aV1596363
p6
aV1397280
p7
aV1245526
p8
aV0359950
p9
aV0455944
p10
aV0360486
p11
aV0381849
p12
aV0472043
p13
aV3397884
p14
aV0348150
p15
aV1194173
p16
aV0814314
p17
aV2322441
p18
aV1041829
p19
aV1187043
p20
aV1037705
p21
aV1152836
p22
aV1951261
p23
aV1735898
p24
aV1646971
p25
aV1253863
p26
aV0800320
p27
aV0878804
p28
aV2004420
p29
aV0884328
p30
aV0473075
p31
aV1133985
p32
aV3170832
p33
aV1259571
p34
aV0320661
p35
aV1197624
p36
aV0808151
p37
aV1478338
p38
aV1981677
p39
aV1790885
p40
aV0800039
p41
aV1645170
p42
aV0413267
p43
aV0838283
p44
aV2194499
p45
aV0450385
p46
aV0463854
p47
aV0955308
p48
aV1591095
p49
aV3682448
p50
a.(lp0
V1028528
p1
aV0401729
p2
aV0486655
p3
aV0486576
p4
aV1091191
p5
aV0429493
p6
aV1013752
p7
aV1401152
p8
aV0411477
p9
aV1650554
p10
aV2302755
p11
aV1343727
p12
aV1706593
p13
aV2024469
p14
aV1386703
p15
aV1601913
p16
aV1033575
p17
aV1440129
p18
aV1077368
p19
aV1959490
p20
aV0497465
p21
aV1385826
p22
aV0452623
p23
aV0443272
p24
aV0438097
p25
aV1340138
p26
aV0824747
p27
aV1638355
p28
aV1951266
p29
aV0414387
p30
aV0479884
p31
aV0978764
p32
aV1032755
p33
aV0783233
p34
aV1464540
p35
aV1213663
p36
aV1092026
p37
aV1706620
p38
aV0121164
p39
aV1817273
p40
aV1386588
p41
aV0448134
p42
aV2229499
p43
aV1655442
p44
aV0430922
p45
aV0396171
p46
aV0414993
p47
aV0976051
p48
aV1302011
p49
aV0478087
p50
a.(lp0
V0765443
p1
aV1931533
p2
aV0432348
p3
aV0427944
p4
aV0358273
p5
aV1124035
p6
aV0399146
p7
aV1212450
p8
aV0825232
p9
aV0463985
p10
aV2106476
p11
aV1192628
p12
aV1673434
p13
aV0457939
p14
aV1731141
p15
aV0448011
p16
aV0985699
p17
aV0420223
p18
aV1588173
p19
aV0486822
p20
aV1325004
p21
aV1855199
p22
aV1179904
p23
aV1210819
p24
aV0259324
p25
aV1234721
p26
aV1375670
p27
aV1823672
p28
aV1324999
p29
aV0465234
p30
aV2397535
p31
aV3079380
p32
aV1211956
p33
aV0898367
p34
aV0462499
p35
aV1598778
p36
aV1243957
p37
aV0384537
p38
aV2209764
p39
aV0373469
p40
aV0983193
p41
aV1001526
p42
aV0408306
p43
aV1564367
p44
aV0758774
p45
aV1132620
p46
aV1189340
p47
aV1220719
p48
aV1321870
p49
aV1623205
p50
a.(lp0
V1139797
p1
aV1046173
p2
aV1028532
p3
aV1424381
p4
aV0409847
p5
aV1291150
p6
aV1080016
p7
aV1411238
p8
aV1605630
p9
aV3076658
p10
aV0431308
p11
aV0837562
p12
aV0416320
p13
aV1077258
p14
aV1599348
p15
aV1436562
p16
aV0425061
p17
aV0452608
p18
aV2334879
p19
aV2908446
p20
aV1922777
p21
aV1606378
p22
aV1142988
p23
aV1155056
p24
aV0479143
p25
aV1798684
p26
aV0949731
p27
aV0481369
p28
aV0985694
p29
aV1980209
p30
aV0485947
p31
aV1428538
p32
aV2381941
p33
aV0401855
p34
aV1284575
p35
aV1815862
p36
aV2234155
p37
aV1832382
p38
aV1272878
p39
aV0388482
p40
aV0435625
p41
aV1127180
p42
aV1636826
p43
aV0993842
p44
aV0844471
p45
aV0960144
p46
aV2126355
p47
aV2293640
p48
aV0371724
p49
aV2361509
p50
a.(lp0
V4046784
p1
aV2334873
p2
aV0481499
p3
aV0462322
p4
aV0432021
p5
aV0499448
p6
aV0959337
p7
aV1646987
p8
aV1217613
p9
aV0479952
p10
aV1111422
p11
aV1899353
p12
aV0477080
p13
aV0327597
p14
aV1649419
p15
aV1340800
p16
aV1606389
p17
aV0200465
p18
aV2719848
p19
aV1059786
p20
aV2184339
p21
aV1723811
p22
aV0397892
p23
aV1667889
p24
aV1013743
p25
aV0986263
p26
aV0385752
p27
aV2053463
p28
aV1007028
p29
aV0352248
p30
aV1596350
p31
aV0795421
p32
aV1148204
p33
aV1458175
p34
aV0974661
p35
aV2883512
p36
aV0455590
p37
aV1583421
p38
aV1120985
p39
aV1226229
p40
aV0758752
p41
aV1617661
p42
aV0432283
p43
aV1596365
p44
aV0461770
p45
aV0418763
p46
aV0488120
p47
aV0814255
p48
aV0829150
p49
aV0489270
p50
a.(lp0
V0892791
p1
aV1872194
p2
aV0838221
p3
aV1033643
p4
aV0442933
p5
aV0914798
p6
aV1305806
p7
aV2446042
p8
aV2557490
p9
aV0450278
p10
aV0465494
p11
aV0970416
p12
aV0389722
p13
aV1964418
p14
aV0443680
p15
aV0478304
p16
aV1231587
p17
aV2369135
p18
aV1935179
p19
aV1013753
p20
aV1253864
p21
aV2023587
p22
aV1398426
p23
aV1488555
p24
aV0366548
p25
aV1220634
p26
aV0756683
p27
aV1078912
p28
aV2404463
p29
aV0990407
p30
aV1229340
p31
aV3235888
p32
aV0465538
p33
aV1038988
p34
aV2333784
p35
aV2637276
p36
aV1139328
p37
aV0415306
p38
aV1001508
p39
aV1528100
p40
aV1527186
p41
aV1465522
p42
aV0398165
p43
aV1091722
p44
aV0498380
p45
aV0424136
p46
aV1355683
p47
aV0454841
p48
aV0445934
p49
aV2321549
p50
a.(lp0
V1821694
p1
aV1129442
p2
aV0327084
p3
aV1288558
p4
aV1611224
p5
aV1279935
p6
aV0832266
p7
aV0465602
p8
aV1411250
p9
aV0408790
p10
aV1446192
p11
aV0443274
p12
aV0988595
p13
aV0963966
p14
aV0380510
p15
aV1057500
p16
aV0834001
p17
aV1054606
p18
aV0435705
p19
aV0978762
p20
aV0472399
p21
aV1568338
p22
aV1155076
p23
aV0780571
p24
aV1277953
p25
aV0293564
p26
aV1496025
p27
aV1188729
p28
aV2170439
p29
aV2140373
p30
aV0859163
p31
aV0464141
p32
aV0938283
p33
aV1462758
p34
aV3464902
p35
aV0762107
p36
aV0475394
p37
aV0889583
p38
aV0385002
p39
aV1335975
p40
aV0822832
p41
aV0454945
p42
aV0458481
p43
aV1267297
p44
aV0397535
p45
aV1568911
p46
aV1502712
p47
aV1727388
p48
aV1034303
p49
aV0892782
p50
a.(lp0
V0452694
p1
aV0448694
p2
aV0805564
p3
aV2226417
p4
aV0413099
p5
aV1403981
p6
aV1121931
p7
aV0410297
p8
aV1549920
p9
aV0417148
p10
aV1661199
p11
aV0424345
p12
aV0398808
p13
aV0481536
p14
aV2080374
p15
aV0473705
p16
aV1389137
p17
aV1034032
p18
aV1600196
p19
aV0890870
p20
aV1714206
p21
aV1334260
p22
aV1399683
p23
aV1764234
p24
aV0387131
p25
aV0387808
p26
aV1174732
p27
aV0472033
p28
aV0450232
p29
aV0369441
p30
aV2191701
p31
aV0430105
p32
aV1100089
p33
aV1809398
p34
aV1855325
p35
aV0471042
p36
aV0947810
p37
aV2101441
p38
aV1655441
p39
aV1563738
p40
aV0842926
p41
aV0980970
p42
aV0804497
p43
aV1915581
p44
aV1939659
p45
aV1560747
p46
aV2316411
p47
aV0989757
p48
aV0365737
p49
aV0389790
p50
a.(lp0
V0402022
p1
aV1234548
p2
aV1216475
p3
aV1924435
p4
aV1980929
p5
aV0810819
p6
aV3011894
p7
aV0443649
p8
aV1538403
p9
aV1204975
p10
aV1351685
p11
aV0451079
p12
aV3569230
p13
aV2203939
p14
aV0449010
p15
aV0467197
p16
aV1790886
p17
aV2180411
p18
aV1314655
p19
aV1448755
p20
aV2848292
p21
aV0358082
p22
aV1189073
p23
aV0384793
p24
aV0433362
p25
aV1262416
p26
aV0414982
p27
aV1019452
p28
aV2177771
p29
aV1758830
p30
aV1298649
p31
aV1615065
p32
aV3152624
p33
aV2975578
p34
aV1616195
p35
aV0816442
p36
aV0480687
p37
aV0452594
p38
aV2042568
p39
aV0379725
p40
aV2338151
p41
aV0455824
p42
aV1242460
p43
aV0815236
p44
aV2209418
p45
aV0986264
p46
aV4263482
p47
aV1862079
p48
aV0431197
p49
aV1524137
p50
a.(lp0
V2096672
p1
aV0418689
p2
aV2278871
p3
aV0918927
p4
aV1205537
p5
aV0312004
p6
aV2024432
p7
aV1201167
p8
aV0427327
p9
aV0486946
p10
aV2120120
p11
aV0480025
p12
aV1000774
p13
aV0355295
p14
aV1038919
p15
aV1692486
p16
aV1055292
p17
aV2692904
p18
aV0404032
p19
aV1179034
p20
aV0822847
p21
aV0905372
p22
aV0817230
p23
aV2446980
p24
aV4178092
p25
aV2554274
p26
aV1547234
p27
aV3316960
p28
aV1067583
p29
aV0393162
p30
aV0397065
p31
aV0758730
p32
aV1058017
p33
aV1615147
p34
aV0362120
p35
aV1924429
p36
aV1228987
p37
aV0421239
p38
aV0421073
p39
aV0790736
p40
aV1517260
p41
aV0907657
p42
aV0482606
p43
aV0455407
p44
aV1131734
p45
aV0366627
p46
aV0340163
p47
aV1821549
p48
aV2305051
p49
aV2381111
p50
a.(lp0
V2561572
p1
aV0462590
p2
aV0430357
p3
aV1904996
p4
aV0780521
p5
aV1441395
p6
aV0445922
p7
aV1486185
p8
aV0404203
p9
aV1172570
p10
aV0453451
p11
aV0870984
p12
aV1131729
p13
aV1086772
p14
aV1255953
p15
aV0435651
p16
aV1634122
p17
aV0365907
p18
aV0465580
p19
aV1132626
p20
aV0795368
p21
aV1911644
p22
aV3488710
p23
aV1327773
p24
aV2388715
p25
aV2582496
p26
aV1307068
p27
aV2404311
p28
aV0460791
p29
aV0765010
p30
aV0405296
p31
aV1355630
p32
aV1071875
p33
aV0401383
p34
aV1023114
p35
aV0472062
p36
aV0876563
p37
aV1509767
p38
aV3322940
p39
aV0799949
p40
aV1854564
p41
aV0397101
p42
aV0780653
p43
aV2265171
p44
aV0373883
p45
aV0373051
p46
aV1390411
p47
aV0929632
p48
aV1073498
p49
aV0426931
p50
a.(lp0
V1937390
p1
aV0419706
p2
aV1567609
p3
aV0870111
p4
aV0865556
p5
aV1315981
p6
aV0424095
p7
aV0386117
p8
aV1921064
p9
aV1053424
p10
aV0426883
p11
aV0367959
p12
aV1956620
p13
aV1602613
p14
aV0790686
p15
aV0970866
p16
aV0404390
p17
aV0436697
p18
aV0365830
p19
aV0384806
p20
aV0376136
p21
aV0848537
p22
aV1682180
p23
aV0343737
p24
aV1206543
p25
aV0480242
p26
aV2312718
p27
aV0467200
p28
aV0342258
p29
aV1656190
p30
aV1622979
p31
aV0373926
p32
aV1438176
p33
aV0462504
p34
aV0393109
p35
aV1114740
p36
aV1240982
p37
aV2884206
p38
aV1007029
p39
aV1027718
p40
aV0433400
p41
aV1078940
p42
aV0475276
p43
aV3416742
p44
aV0477302
p45
aV0425123
p46
aV1063669
p47
aV1478964
p48
aV0433383
p49
aV0490204
p50
a.(lp0
V1536044
p1
aV0861739
p2
aV1571222
p3
aV1702439
p4
aV0412019
p5
aV0409182
p6
aV2193215
p7
aV0758766
p8
aV0816462
p9
aV1592525
p10
aV0292963
p11
aV1135503
p12
aV0364970
p13
aV0901476
p14
aV1502404
p15
aV0422720
p16
aV1038686
p17
aV1023111
p18
aV1433108
p19
aV1333125
p20
aV1614989
p21
aV0427152
p22
aV1327194
p23
aV2199571
p24
aV3567288
p25
aV1839492
p26
aV1408253
p27
aV0452637
p28
aV0452702
p29
aV1212419
p30
aV0889573
p31
aV1017460
p32
aV1450321
p33
aV0963178
p34
aV1800246
p35
aV1482459
p36
aV1034314
p37
aV1440728
p38
aV1195478
p39
aV1638002
p40
aV1235166
p41
aV2357129
p42
aV0799934
p43
aV0405508
p44
aV0418819
p45
aV1622547
p46
aV1045772
p47
aV2431286
p48
aV1233227
p49
aV2170593
p50
a.(lp0
V0441909
p1
aV3063516
p2
aV0443701
p3
aV0446755
p4
aV0318649
p5
aV1258197
p6
aV1657507
p7
aV1144884
p8
aV1778304
p9
aV0395584
p10
aV1067106
p11
aV1142977
p12
aV1588170
p13
aV0479997
p14
aV1470827
p15
aV2402927
p16
aV1188996
p17
aV1045778
p18
aV0758746
p19
aV1161864
p20
aV1924396
p21
aV1412386
p22
aV0362478
p23
aV1179056
p24
aV1226273
p25
aV1078588
p26
aV0892318
p27
aV2631186
p28
aV0348333
p29
aV1979388
p30
aV1623288
p31
aV0981227
p32
aV2224026
p33
aV0406816
p34
aV1564585
p35
aV2503944
p36
aV0385880
p37
aV0365686
p38
aV1532503
p39
aV0480255
p40
aV1204342
p41
aV1216487
p42
aV1549572
p43
aV1386932
p44
aV1385867
p45
aV1213644
p46
aV1637706
p47
aV0377109
p48
aV1648179
p49
aV0452625
p50
a.(lp0
V1289406
p1
aV0386140
p2
aV1216492
p3
aV1103153
p4
aV2692250
p5
aV1781769
p6
aV0960731
p7
aV1034331
p8
aV0499556
p9
aV1524930
p10
aV1602620
p11
aV0464154
p12
aV1486192
p13
aV0914863
p14
aV0460740
p15
aV0401445
p16
aV1135985
p17
aV0408839
p18
aV0498399
p19
aV1232200
p20
aV1675192
p21
aV0357277
p22
aV0808417
p23
aV1506999
p24
aV1655420
p25
aV0468492
p26
aV0808279
p27
aV0468489
p28
aV2172934
p29
aV3622592
p30
aV1187064
p31
aV0402399
p32
aV1667353
p33
aV1456635
p34
aV0498353
p35
aV1230414
p36
aV0416236
p37
aV1164999
p38
aV2125435
p39
aV0382077
p40
aV0406375
p41
aV0370032
p42
aV1859650
p43
aV1477076
p44
aV1618442
p45
aV1397514
p46
aV1322269
p47
aV1559547
p48
aV1263670
p49
aV1396218
p50
a.(lp0
V0844708
p1
aV2980592
p2
aV1297919
p3
aV0395699
p4
aV2132285
p5
aV1440292
p6
aV0396555
p7
aV0455760
p8
aV2679042
p9
aV0384680
p10
aV2205697
p11
aV1023481
p12
aV0821640
p13
aV0463034
p14
aV0457513
p15
aV0472181
p16
aV2510894
p17
aV1791528
p18
aV0455967
p19
aV0419887
p20
aV0450188
p21
aV1528854
p22
aV1985966
p23
aV1598822
p24
aV0453562
p25
aV0456554
p26
aV1555149
p27
aV0400717
p28
aV0469641
p29
aV1418377
p30
aV0839980
p31
aV1714915
p32
aV0383216
p33
aV0371606
p34
aV1219342
p35
aV0457510
p36
aV0879870
p37
aV1540133
p38
aV0882977
p39
aV1020072
p40
aV1853739
p41
aV0377818
p42
aV2866360
p43
aV1020558
p44
aV2140379
p45
aV1229822
p46
aV0411061
p47
aV1117385
p48
aV3850214
p49
aV1600195
p50
a.(lp0
V0398712
p1
aV1152398
p2
aV0852713
p3
aV1625346
p4
aV1716772
p5
aV0427392
p6
aV0403702
p7
aV1095217
p8
aV0862856
p9
aV1235522
p10
aV2382009
p11
aV0465551
p12
aV1860353
p13
aV2179116
p14
aV0817177
p15
aV0378109
p16
aV0815245
p17
aV1093908
p18
aV0462465
p19
aV4062536
p20
aV1220198
p21
aV0405325
p22
aV0211933
p23
aV3316948
p24
aV0864761
p25
aV1911658
p26
aV1294226
p27
aV1674771
p28
aV1126590
p29
aV1433811
p30
aV0387877
p31
aV1126591
p32
aV0446059
p33
aV1512235
p34
aV1234719
p35
aV1336608
p36
aV0483607
p37
aV0401711
p38
aV0477071
p39
aV1655460
p40
aV3195644
p41
aV0439815
p42
aV0398017
p43
aV0371257
p44
aV1029234
p45
aV0795351
p46
aV0810913
p47
aV2387559
p48
aV2436386
p49
aV1711425
p50
a.(lp0
V1840417
p1
aV0787475
p2
aV0494238
p3
aV2357291
p4
aV2017038
p5
aV0975645
p6
aV0354899
p7
aV0770752
p8
aV0389557
p9
aV2002718
p10
aV0862846
p11
aV0790628
p12
aV2370248
p13
aV3072482
p14
aV0455538
p15
aV1261945
p16
aV0367089
p17
aV1912398
p18
aV0995039
p19
aV3322364
p20
aV0770703
p21
aV1726669
p22
aV0478134
p23
aV1178663
p24
aV0383028
p25
aV0804461
p26
aV1366344
p27
aV2358891
p28
aV1020530
p29
aV1683526
p30
aV0963794
p31
aV1126618
p32
aV1374992
p33
aV1972571
p34
aV1528071
p35
aV0861689
p36
aV0481141
p37
aV0427229
p38
aV0970452
p39
aV1582507
p40
aV1605717
p41
aV0377471
p42
aV2387433
p43
aV1467304
p44
aV1172049
p45
aV0952640
p46
aV0374536
p47
aV1242432
p48
aV0368709
p49
aV0391304
p50
a.(lp0
V1121096
p1
aV2082197
p2
aV1186367
p3
aV1586265
p4
aV0811080
p5
aV0425413
p6
aV1341167
p7
aV1082868
p8
aV1591479
p9
aV2980648
p10
aV1098327
p11
aV3007512
p12
aV0884732
p13
aV0421054
p14
aV2057392
p15
aV2726560
p16
aV1781922
p17
aV1352824
p18
aV0443489
p19
aV1491044
p20
aV0420294
p21
aV2334649
p22
aV0971209
p23
aV1371150
p24
aV1666801
p25
aV3203606
p26
aV1568921
p27
aV1245112
p28
aV0416315
p29
aV1051904
p30
aV0423977
p31
aV1740707
p32
aV1268799
p33
aV0387898
p34
aV2377322
p35
aV0841046
p36
aV0329774
p37
aV0451094
p38
aV1172233
p39
aV1588334
p40
aV0866439
p41
aV0414055
p42
aV1226753
p43
aV1278340
p44
aV2051879
p45
aV0423294
p46
aV2101341
p47
aV1149362
p48
aV2106361
p49
aV0433387
p50
a.(lp0
V1034389
p1
aV0871510
p2
aV0486551
p3
aV1323045
p4
aV1343097
p5
aV1486834
p6
aV1186830
p7
aV0463998
p8
aV1586752
p9
aV0477051
p10
aV2870612
p11
aV0873886
p12
aV0450345
p13
aV1320261
p14
aV1270262
p15
aV0465624
p16
aV1893256
p17
aV0970411
p18
aV1109624
p19
aV1300851
p20
aV0385307
p21
aV0453556
p22
aV1321511
p23
aV1258972
p24
aV0831887
p25
aV1726592
p26
aV0986233
p27
aV1991245
p28
aV1990314
p29
aV0462200
p30
aV0445990
p31
aV2574698
p32
aV1130080
p33
aV1210042
p34
aV1763303
p35
aV0426592
p36
aV3605418
p37
aV0482572
p38
aV2364841
p39
aV1954470
p40
aV1441952
p41
aV0396752
p42
aV2402157
p43
aV0457400
p44
aV1687901
p45
aV1197628
p46
aV1235124
p47
aV0421082
p48
aV2109184
p49
aV0388125
p50
a.(lp0
V3312830
p1
aV1462041
p2
aV0795461
p3
aV1436045
p4
aV0401997
p5
aV0380389
p6
aV1185416
p7
aV1242422
p8
aV0472160
p9
aV2053425
p10
aV2039393
p11
aV3045616
p12
aV1583420
p13
aV1280558
p14
aV0476964
p15
aV0492044
p16
aV2910814
p17
aV0938330
p18
aV0427470
p19
aV0800069
p20
aV0404030
p21
aV0800308
p22
aV0780511
p23
aV0382628
p24
aV0817538
p25
aV1322312
p26
aV2870756
p27
aV1783232
p28
aV0466342
p29
aV1379182
p30
aV2390361
p31
aV0397313
p32
aV0864835
p33
aV0450314
p34
aV0369436
p35
aV0356680
p36
aV3863552
p37
aV2140619
p38
aV2937898
p39
aV0489049
p40
aV0408345
p41
aV1365050
p42
aV3713166
p43
aV1093357
p44
aV1748179
p45
aV1850457
p46
aV2262227
p47
aV2083383
p48
aV0385700
p49
aV1191111
p50
a.(lp0
V1232776
p1
aV1758692
p2
aV0805570
p3
aV0988047
p4
aV0491152
p5
aV0489237
p6
aV0466909
p7
aV1742334
p8
aV0851578
p9
aV1438254
p10
aV2013293
p11
aV0368794
p12
aV2359024
p13
aV3168230
p14
aV0814022
p15
aV1972779
p16
aV0427309
p17
aV1606392
p18
aV0431021
p19
aV1193631
p20
aV0416508
p21
aV0758794
p22
aV1661382
p23
aV1562872
p24
aV1135084
p25
aV0804522
p26
aV1645080
p27
aV1704573
p28
aV2265398
p29
aV2347569
p30
aV2494362
p31
aV1772240
p32
aV0881320
p33
aV1014763
p34
aV3332064
p35
aV0449089
p36
aV0962736
p37
aV0443536
p38
aV0477139
p39
aV1075747
p40
aV1313092
p41
aV1527788
p42
aV1800741
p43
aV1032846
p44
aV2105044
p45
aV0476735
p46
aV1222817
p47
aV1592873
p48
aV0492956
p49
aV1179891
p50
a.(lp0
V3322420
p1
aV1176740
p2
aV1389096
p3
aV0403508
p4
aV1043726
p5
aV2356180
p6
aV1334512
p7
aV0962726
p8
aV0382992
p9
aV0397078
p10
aV1029360
p11
aV0375154
p12
aV0844479
p13
aV1226774
p14
aV2005374
p15
aV0369735
p16
aV2234003
p17
aV0862467
p18
aV0443473
p19
aV0765120
p20
aV0402894
p21
aV1075417
p22
aV0412080
p23
aV0406759
p24
aV0355702
p25
aV1971325
p26
aV1243974
p27
aV1403177
p28
aV1439572
p29
aV2401878
p30
aV0787474
p31
aV0795493
p32
aV0810922
p33
aV0480669
p34
aV0452598
p35
aV0402910
p36
aV0821642
p37
aV2058673
p38
aV1578275
p39
aV1185834
p40
aV2176013
p41
aV0460829
p42
aV0377981
p43
aV3530002
p44
aV0811138
p45
aV0421238
p46
aV1175709
p47
aV1686821
p48
aV1821480
p49
aV0800241
p50
a.(lp0
V1837709
p1
aV0997152
p2
aV1273235
p3
aV1869716
p4
aV1139668
p5
aV2463288
p6
aV1764183
p7
aV0362165
p8
aV2771372
p9
aV2717822
p10
aV0443632
p11
aV1166100
p12
aV0844286
p13
aV0294870
p14
aV0762125
p15
aV0398375
p16
aV1703199
p17
aV1320244
p18
aV0375210
p19
aV1414382
p20
aV2268016
p21
aV2400463
p22
aV3850590
p23
aV1531663
p24
aV1135487
p25
aV0367652
p26
aV2273657
p27
aV1212436
p28
aV2223990
p29
aV1084950
p30
aV0891527
p31
aV0437863
p32
aV0880578
p33
aV1285241
p34
aV0947802
p35
aV0935075
p36
aV2884018
p37
aV1441326
p38
aV1175491
p39
aV1270761
p40
aV0808506
p41
aV1321860
p42
aV1213648
p43
aV3848892
p44
aV0848557
p45
aV0430304
p46
aV1190539
p47
aV1294688
p48
aV0365485
p49
aV1410063
p50
a.(lp0
V3203616
p1
aV1308729
p2
aV1205535
p3
aV1017451
p4
aV3715320
p5
aV0475944
p6
aV0362225
p7
aV3390572
p8
aV0808399
p9
aV0372532
p10
aV4430212
p11
aV1069238
p12
aV2404425
p13
aV0433386
p14
aV2231253
p15
aV1666186
p16
aV2170299
p17
aV1754656
p18
aV1214962
p19
aV0977855
p20
aV3169706
p21
aV1567437
p22
aV0929425
p23
aV1931435
p24
aV2614684
p25
aV2112124
p26
aV1024255
p27
aV0892255
p28
aV0398913
p29
aV0815244
p30
aV0460780
p31
aV1068242
p32
aV2967224
p33
aV1772264
p34
aV1462769
p35
aV2103254
p36
aV1920849
p37
aV1850397
p38
aV2718492
p39
aV0416044
p40
aV1480656
p41
aV0457433
p42
aV1225822
p43
aV1976009
p44
aV1767354
p45
aV1640459
p46
aV0424993
p47
aV1825157
p48
aV0473308
p49
aV2382396
p50
a.(lp0
V0308055
p1
aV0460989
p2
aV1430607
p3
aV0875034
p4
aV0434139
p5
aV1311067
p6
aV1247640
p7
aV0425637
p8
aV1656186
p9
aV0369226
p10
aV2377938
p11
aV0444682
p12
aV0446013
p13
aV1046163
p14
aV1182350
p15
aV1083456
p16
aV0857191
p17
aV0400497
p18
aV1430626
p19
aV0417217
p20
aV1172991
p21
aV0813547
p22
aV1748227
p23
aV1321509
p24
aV1204977
p25
aV2610768
p26
aV1190536
p27
aV0430308
p28
aV0377107
p29
aV1647668
p30
aV0418455
p31
aV1181791
p32
aV2279373
p33
aV0473444
p34
aV2333804
p35
aV1596346
p36
aV0424880
p37
aV3064298
p38
aV1866249
p39
aV0332047
p40
aV0450405
p41
aV1421051
p42
aV1720616
p43
aV1291570
p44
aV1470023
p45
aV1613750
p46
aV1572315
p47
aV0407265
p48
aV1416801
p49
aV1160996
p50
a.(lp0
V0457419
p1
aV2375559
p2
aV1341188
p3
aV0454824
p4
aV0424823
p5
aV0806203
p6
aV1691917
p7
aV0455857
p8
aV0385726
p9
aV1244754
p10
aV1276419
p11
aV1053810
p12
aV2243537
p13
aV1626146
p14
aV1621045
p15
aV2404461
p16
aV1833673
p17
aV1464580
p18
aV2737050
p19
aV2345737
p20
aV1838544
p21
aV0395251
p22
aV1529572
p23
aV0387514
p24
aV1674784
p25
aV0455960
p26
aV1423995
p27
aV2199711
p28
aV1535438
p29
aV1716777
p30
aV0798817
p31
aV0490086
p32
aV2350496
p33
aV1216491
p34
aV0780622
p35
aV1598828
p36
aV0779982
p37
aV1233301
p38
aV1521197
p39
aV2802154
p40
aV0871426
p41
aV1369706
p42
aV1093370
p43
aV4226388
p44
aV2283748
p45
aV0838232
p46
aV0421206
p47
aV0419294
p48
aV1067774
p49
aV0337692
p50
a.(lp0
V0372237
p1
aV2567712
p2
aV0436339
p3
aV3099498
p4
aV2935476
p5
aV1073105
p6
aV1285309
p7
aV1182937
p8
aV2910904
p9
aV0425430
p10
aV0410097
p11
aV1196141
p12
aV1639426
p13
aV1791682
p14
aV1226271
p15
aV1402488
p16
aV0881891
p17
aV3612616
p18
aV1967545
p19
aV1881002
p20
aV1430612
p21
aV1531901
p22
aV2528814
p23
aV1130988
p24
aV0395972
p25
aV1340107
p26
aV2034031
p27
aV1078188
p28
aV2452042
p29
aV0482527
p30
aV0421729
p31
aV1231580
p32
aV0804492
p33
aV2318092
p34
aV0800240
p35
aV1667310
p36
aV3097204
p37
aV1865505
p38
aV1186370
p39
aV0472198
p40
aV2473682
p41
aV1571249
p42
aV0896798
p43
aV1251757
p44
aV1714203
p45
aV1114677
p46
aV0486583
p47
aV0490084
p48
aV1035736
p49
aV0762114
p50
a.(lp0
V0405336
p1
aV0762073
p2
aV1477837
p3
aV1031969
p4
aV0760329
p5
aV1262981
p6
aV1045670
p7
aV1658837
p8
aV0983213
p9
aV0765476
p10
aV0365929
p11
aV2121382
p12
aV0913425
p13
aV0763831
p14
aV0775529
p15
aV1426329
p16
aV1562871
p17
aV0464196
p18
aV2994190
p19
aV0808510
p20
aV1064932
p21
aV1698641
p22
aV1303828
p23
aV1172994
p24
aV0443465
p25
aV0430912
p26
aV1273678
p27
aV0429591
p28
aV1727776
p29
aV2024519
p30
aV0456144
p31
aV0976238
p32
aV3205376
p33
aV2076220
p34
aV2402101
p35
aV1703148
p36
aV0838247
p37
aV0420238
p38
aV0454970
p39
aV2752772
p40
aV0415978
p41
aV2918436
p42
aV0267891
p43
aV0435670
p44
aV0435679
p45
aV1837703
p46
aV0808357
p47
aV1073241
p48
aV0485851
p49
aV2669336
p50
a.(lp0
V0419984
p1
aV2091473
p2
aV1714209
p3
aV2870708
p4
aV1783732
p5
aV1787988
p6
aV2479478
p7
aV1694020
p8
aV1535616
p9
aV1758795
p10
aV2515034
p11
aV0787524
p12
aV0471041
p13
aV0429589
p14
aV1560985
p15
aV4005402
p16
aV1235189
p17
aV2244901
p18
aV2091935
p19
aV0384642
p20
aV0427954
p21
aV2938956
p22
aV2275946
p23
aV1024943
p24
aV0383222
p25
aV3808342
p26
aV0765432
p27
aV2493486
p28
aV1314228
p29
aV1103275
p30
aV1336617
p31
aV1872818
p32
aV2637294
p33
aV0856288
p34
aV1216496
p35
aV1234654
p36
aV2172584
p37
aV1244668
p38
aV1360860
p39
aV1709143
p40
aV0409904
p41
aV0790712
p42
aV0462396
p43
aV1496422
p44
aV3042408
p45
aV0457297
p46
aV2097307
p47
aV1265990
p48
aV2058107
p49
aV1185836
p50
a.(lp0
V0432291
p1
aV1413495
p2
aV3181822
p3
aV2888046
p4
aV1068646
p5
aV2317337
p6
aV1366365
p7
aV2113681
p8
aV1266029
p9
aV1480295
p10
aV0455499
p11
aV0416496
p12
aV0427969
p13
aV2016940
p14
aV1112782
p15
aV1316536
p16
aV2017020
p17
aV0402901
p18
aV0413895
p19
aV0810988
p20
aV3442006
p21
aV0485985
p22
aV0954947
p23
aV1814621
p24
aV0775489
p25
aV2450186
p26
aV1032815
p27
aV0444653
p28
aV0449487
p29
aV1712170
p30
aV0419749
p31
aV0410377
p32
aV1024715
p33
aV1839596
p34
aV2103217
p35
aV2178470
p36
aV1827487
p37
aV2758880
p38
aV0470705
p39
aV0926129
p40
aV0483726
p41
aV1937264
p42
aV1530509
p43
aV0460745
p44
aV1082601
p45
aV2101473
p46
aV0374569
p47
aV0419843
p48
aV0419946
p49
aV1311071
p50
a.(lp0
V1594562
p1
aV1788391
p2
aV0401085
p3
aV0367027
p4
aV1541160
p5
aV0379865
p6
aV1684233
p7
aV3165612
p8
aV0999913
p9
aV1179031
p10
aV1031280
p11
aV1590089
p12
aV2461132
p13
aV0482599
p14
aV1741273
p15
aV1821700
p16
aV2720680
p17
aV1174730
p18
aV1596345
p19
aV0410764
p20
aV0845046
p21
aV1372686
p22
aV1612774
p23
aV0901487
p24
aV1259014
p25
aV0910554
p26
aV1082886
p27
aV0964539
p28
aV2261331
p29
aV1456941
p30
aV2800240
p31
aV0903657
p32
aV0841044
p33
aV1649444
p34
aV0456912
p35
aV1823664
p36
aV0479968
p37
aV1440345
p38
aV0461936
p39
aV3077214
p40
aV1641638
p41
aV3086442
p42
aV1381404
p43
aV2872750
p44
aV2467046
p45
aV2626350
p46
aV2294677
p47
aV0473360
p48
aV1727770
p49
aV0375568
p50
a.(lp0
V0473753
p1
aV1742044
p2
aV1167638
p3
aV1127715
p4
aV0344854
p5
aV0457655
p6
aV2006295
p7
aV2403021
p8
aV2097298
p9
aV1588398
p10
aV0357507
p11
aV1481572
p12
aV0490076
p13
aV0417001
p14
aV0257516
p15
aV3319920
p16
aV0804516
p17
aV0482088
p18
aV1437358
p19
aV0375611
p20
aV0913354
p21
aV0857265
p22
aV0880502
p23
aV1179069
p24
aV0346631
p25
aV1171701
p26
aV0462519
p27
aV1435513
p28
aV0802948
p29
aV0462335
p30
aV0380599
p31
aV0488085
p32
aV0450340
p33
aV3450650
p34
aV0489664
p35
aV3787590
p36
aV0441796
p37
aV0899106
p38
aV0458413
p39
aV2317225
p40
aV1629757
p41
aV0383010
p42
aV0896872
p43
aV0426459
p44
aV3504048
p45
aV1999995
p46
aV2756032
p47
aV1971352
p48
aV1462900
p49
aV0455957
p50
a.(lp0
V0842929
p1
aV2281587
p2
aV0785035
p3
aV1204340
p4
aV2059171
p5
aV0457572
p6
aV0469021
p7
aV1149361
p8
aV0479537
p9
aV0454919
p10
aV1174954
p11
aV0495596
p12
aV1405365
p13
aV1411704
p14
aV0468565
p15
aV2358925
p16
aV1127896
p17
aV2103267
p18
aV0465203
p19
aV1540128
p20
aV4535650
p21
aV1620933
p22
aV2555736
p23
aV2101569
p24
aV0350261
p25
aV2181931
p26
aV2230358
p27
aV2084989
p28
aV0469623
p29
aV1937149
p30
aV1646980
p31
aV1232783
p32
aV0485601
p33
aV0439662
p34
aV2494280
p35
aV3179568
p36
aV0482546
p37
aV0411272
p38
aV2752200
p39
aV0968264
p40
aV3774694
p41
aV1645155
p42
aV0829459
p43
aV1441912
p44
aV1151359
p45
aV4458206
p46
aV0380623
p47
aV0814335
p48
aV0421994
p49
aV1431181
p50
a.(lp0
V3247714
p1
aV1615918
p2
aV1440161
p3
aV1976000
p4
aV0499554
p5
aV0486674
p6
aV0422401
p7
aV1964624
p8
aV3966404
p9
aV2991224
p10
aV0368578
p11
aV1512685
p12
aV1772288
p13
aV0490181
p14
aV1198138
p15
aV1226681
p16
aV2118624
p17
aV2398231
p18
aV2094018
p19
aV2378281
p20
aV0758742
p21
aV1160368
p22
aV0452681
p23
aV0488604
p24
aV1592281
p25
aV3813310
p26
aV0384286
p27
aV0913968
p28
aV0897361
p29
aV1018785
p30
aV4080728
p31
aV0388980
p32
aV0430634
p33
aV1286126
p34
aV4176826
p35
aV1894476
p36
aV1422136
p37
aV2088003
p38
aV0411951
p39
aV0426578
p40
aV1951181
p41
aV2140203
p42
aV3544082
p43
aV2071550
p44
aV1932767
p45
aV1196948
p46
aV2359810
p47
aV0970468
p48
aV2784678
p49
aV0424205
p50
a.(lp0
V1029235
p1
aV0465142
p2
aV1032751
p3
aV1742336
p4
aV0443295
p5
aV0449994
p6
aV1595656
p7
aV2238050
p8
aV1327035
p9
aV0479528
p10
aV0473488
p11
aV0437179
p12
aV3698408
p13
aV2016894
p14
aV0429573
p15
aV2576852
p16
aV2304771
p17
aV1452628
p18
aV0408985
p19
aV0455782
p20
aV2402105
p21
aV1772250
p22
aV1288403
p23
aV0399327
p24
aV2404181
p25
aV0866437
p26
aV1334102
p27
aV0446046
p28
aV1827512
p29
aV2203308
p30
aV3735246
p31
aV1620719
p32
aV0414853
p33
aV2023690
p34
aV0978759
p35
aV2479800
p36
aV2652092
p37
aV2343793
p38
aV1731697
p39
aV0810784
p40
aV1929263
p41
aV0420293
p42
aV1465487
p43
aV0424774
p44
aV1668191
p45
aV1047540
p46
aV0452624
p47
aV2235108
p48
aV1028576
p49
aV0438315
p50
a.(lp0
V0463872
p1
aV0489235
p2
aV0372873
p3
aV1925431
p4
aV2167266
p5
aV3149038
p6
aV1714210
p7
aV3172532
p8
aV0785007
p9
aV2339741
p10
aV1379177
p11
aV1423894
p12
aV1932718
p13
aV1798188
p14
aV2326554
p15
aV3369806
p16
aV0338427
p17
aV0454776
p18
aV1633356
p19
aV0765446
p20
aV3416744
p21
aV2326612
p22
aV1334553
p23
aV0460792
p24
aV2891174
p25
aV0963743
p26
aV2213054
p27
aV0827503
p28
aV0814685
p29
aV0405676
p30
aV0400525
p31
aV0804540
p32
aV1598642
p33
aV1415283
p34
aV1401143
p35
aV2452200
p36
aV0791304
p37
aV1713476
p38
aV1821658
p39
aV0858479
p40
aV0963194
p41
aV1464174
p42
aV0445946
p43
aV2452254
p44
aV0457495
p45
aV1324059
p46
aV0374563
p47
aV2785032
p48
aV0396652
p49
aV1183923
p50
a.(lp0
V1424797
p1
aV1600524
p2
aV0454082
p3
aV2263944
p4
aV0366780
p5
aV0416212
p6
aV0760311
p7
aV2987732
p8
aV0436331
p9
aV2258345
p10
aV1934231
p11
aV0454987
p12
aV1640548
p13
aV2040560
p14
aV2537176
p15
aV0486640
p16
aV1602098
p17
aV2167202
p18
aV0331933
p19
aV1650043
p20
aV0443456
p21
aV0439289
p22
aV0891592
p23
aV0470883
p24
aV0388182
p25
aV0473367
p26
aV0924129
p27
aV0469263
p28
aV0445620
p29
aV3276924
p30
aV0884224
p31
aV1305797
p32
aV0780516
p33
aV0465502
p34
aV2140465
p35
aV1085779
p36
aV2473794
p37
aV0809504
p38
aV1487118
p39
aV1247690
p40
aV1326972
p41
aV3461252
p42
aV0420087
p43
aV2172985
p44
aV0775539
p45
aV1582248
p46
aV0974554
p47
aV0405469
p48
aV0480271
p49
aV0449061
p50
a.(lp0
V3792960
p1
aV0404978
p2
aV3253930
p3
aV0484740
p4
aV1603257
p5
aV3672742
p6
aV1715873
p7
aV1194263
p8
aV1440232
p9
aV0433412
p10
aV2980794
p11
aV0418773
p12
aV2401807
p13
aV3767372
p14
aV0412922
p15
aV2372678
p16
aV2059255
p17
aV0365885
p18
aV0395495
p19
aV3177316
p20
aV0403217
p21
aV0491747
p22
aV0342735
p23
aV0830558
p24
aV0831884
p25
aV1924394
p26
aV1567448
p27
aV1767372
p28
aV0497137
p29
aV2556308
p30
aV3616916
p31
aV0892767
p32
aV1767382
p33
aV0768212
p34
aV0489282
p35
aV0318761
p36
aV1071804
p37
aV0956038
p38
aV0326905
p39
aV3118452
p40
aV1621039
p41
aV1023500
p42
aV1012804
p43
aV0964587
p44
aV2799166
p45
aV0432402
p46
aV0441048
p47
aV1474276
p48
aV0443559
p49
aV1193516
p50
a.(lp0
V1821593
p1
aV2355495
p2
aV1151922
p3
aV0416185
p4
aV1564349
p5
aV1849718
p6
aV1810683
p7
aV2139555
p8
aV0837106
p9
aV0477095
p10
aV1231586
p11
aV0338216
p12
aV4934950
p13
aV0780607
p14
aV2372222
p15
aV2473510
p16
aV2910274
p17
aV1748197
p18
aV1014775
p19
aV1046947
p20
aV2872462
p21
aV2218003
p22
aV0486051
p23
aV1740047
p24
aV1198156
p25
aV2231554
p26
aV1296898
p27
aV3547740
p28
aV0417433
p29
aV1441953
p30
aV1305591
p31
aV1634121
p32
aV1095174
p33
aV2243389
p34
aV3297330
p35
aV0464049
p36
aV2300975
p37
aV1959332
p38
aV0441774
p39
aV1826590
p40
aV0489281
p41
aV1092633
p42
aV1865567
p43
aV1714208
p44
aV1068649
p45
aV0411195
p46
aV1598873
p47
aV1196204
p48
aV1928340
p49
aV2398249
p50
a.(lp0
V0790623
p1
aV2424988
p2
aV1134854
p3
aV3387648
p4
aV0913445
p5
aV1178665
p6
aV0408524
p7
aV1129423
p8
aV0404254
p9
aV2101383
p10
aV1729637
p11
aV3278330
p12
aV0415965
p13
aV2855648
p14
aV3398268
p15
aV1020885
p16
aV1486190
p17
aV1829012
p18
aV2905838
p19
aV2832470
p20
aV1702425
p21
aV0437857
p22
aV2309961
p23
aV1263750
p24
aV1349451
p25
aV2187153
p26
aV1294970
p27
aV2368553
p28
aV0494222
p29
aV1235796
p30
aV1648216
p31
aV0775552
p32
aV3623726
p33
aV2428170
p34
aV0951216
p35
aV1748207
p36
aV0785006
p37
aV0430770
p38
aV1124039
p39
aV1905040
p40
aV0469903
p41
aV3289728
p42
aV1181795
p43
aV2388637
p44
aV1742650
p45
aV0417397
p46
aV0409184
p47
aV0808244
p48
aV1302067
p49
aV3722070
p50
a.(lp0
V0790604
p1
aV2490326
p2
aV2077833
p3
aV2023453
p4
aV0433416
p5
aV0872230
p6
aV0942384
p7
aV2473602
p8
aV0857190
p9
aV1320239
p10
aV2717860
p11
aV1029231
p12
aV1517489
p13
aV0318081
p14
aV1424310
p15
aV1433822
p16
aV1545660
p17
aV0499375
p18
aV1659343
p19
aV0361089
p20
aV0398027
p21
aV0803057
p22
aV1247692
p23
aV3395184
p24
aV0953318
p25
aV0901507
p26
aV1356864
p27
aV2011971
p28
aV1230165
p29
aV1135092
p30
aV1659338
p31
aV1984153
p32
aV1533749
p33
aV0479500
p34
aV0961097
p35
aV2438644
p36
aV1179025
p37
aV1449283
p38
aV0795434
p39
aV0406650
p40
aV1441951
p41
aV1205558
p42
aV0285175
p43
aV2195548
p44
aV0381940
p45
aV2183034
p46
aV0796375
p47
aV0422774
p48
aV0467110
p49
aV1508675
p50
a.(lp0
V1715336
p1
aV1921149
p2
aV2239832
p3
aV1735485
p4
aV2515030
p5
aV2309021
p6
aV1042877
p7
aV1928330
p8
aV0411270
p9
aV2235779
p10
aV1536410
p11
aV2582502
p12
aV1876277
p13
aV1183665
p14
aV1535970
p15
aV3210686
p16
aV0896534
p17
aV1032825
p18
aV1234541
p19
aV1220888
p20
aV1630036
p21
aV1979319
p22
aV0875113
p23
aV0402057
p24
aV0960890
p25
aV1068641
p26
aV0437405
p27
aV1046997
p28
aV1985019
p29
aV0757361
p30
aV1440732
p31
aV0437800
p32
aV1337057
p33
aV3824458
p34
aV0865559
p35
aV2056771
p36
aV1702014
p37
aV1430615
p38
aV3417422
p39
aV1020773
p40
aV1316037
p41
aV1362058
p42
aV0383060
p43
aV0466460
p44
aV0824758
p45
aV1747958
p46
aV1758595
p47
aV2171867
p48
aV2828996
p49
aV0397044
p50
a.(lp0
V0417056
p1
aV0804463
p2
aV0435680
p3
aV1389127
p4
aV1656192
p5
aV1766094
p6
aV1498569
p7
aV2390237
p8
aV1699231
p9
aV1018765
p10
aV1183252
p11
aV2309260
p12
aV3678782
p13
aV2393845
p14
aV0393735
p15
aV1027862
p16
aV1320082
p17
aV2258337
p18
aV2403029
p19
aV0811106
p20
aV2316801
p21
aV0458364
p22
aV0373450
p23
aV1104733
p24
aV3321300
p25
aV1753496
p26
aV3347976
p27
aV1082853
p28
aV1808223
p29
aV3148502
p30
aV0804452
p31
aV0893402
p32
aV1555064
p33
aV0399095
p34
aV0409345
p35
aV2304953
p36
aV3841424
p37
aV0364955
p38
aV2581244
p39
aV1194417
p40
aV1233381
p41
aV1780798
p42
aV1935896
p43
aV0475169
p44
aV0960790
p45
aV2401097
p46
aV0456396
p47
aV1277737
p48
aV1226236
p49
aV0920458
p50
a.(lp0
V0449999
p1
aV0493264
p2
aV2140037
p3
aV1172571
p4
aV0961728
p5
aV1016301
p6
aV1886493
p7
aV1054588
p8
aV2917388
p9
aV0466839
p10
aV1754264
p11
aV0482629
p12
aV0926762
p13
aV2788716
p14
aV2980472
p15
aV0434124
p16
aV0462338
p17
aV2639254
p18
aV2249221
p19
aV1736633
p20
aV1535612
p21
aV0464041
p22
aV1244659
p23
aV1332134
p24
aV2591814
p25
aV3819668
p26
aV0420609
p27
aV0455323
p28
aV1084972
p29
aV2625030
p30
aV0464913
p31
aV0865554
p32
aV2302966
p33
aV0488414
p34
aV0995031
p35
aV1594918
p36
aV0386741
p37
aV0800027
p38
aV2258858
p39
aV1798243
p40
aV0493949
p41
aV2752758
p42
aV1763264
p43
aV1373215
p44
aV2675914
p45
aV0892899
p46
aV1016075
p47
aV2094064
p48
aV2389182
p49
aV0808276
p50
a.(lp0
V0780608
p1
aV1436568
p2
aV0411475
p3
aV2131532
p4
aV0900387
p5
aV1067765
p6
aV2039345
p7
aV1391034
p8
aV1018818
p9
aV1520498
p10
aV0492486
p11
aV1291652
p12
aV1926313
p13
aV2063781
p14
aV1654523
p15
aV1756750
p16
aV1103982
p17
aV1085492
p18
aV2172935
p19
aV1839654
p20
aV1680114
p21
aV1525366
p22
aV0470055
p23
aV0910905
p24
aV2331143
p25
aV2608224
p26
aV2212008
p27
aV0770772
p28
aV2034139
p29
aV0392878
p30
aV0808240
p31
aV0819714
p32
aV3859076
p33
aV2215477
p34
aV1610996
p35
aV1996264
p36
aV0388500
p37
aV1847731
p38
aV1322930
p39
aV2923316
p40
aV2011159
p41
aV1821641
p42
aV2095649
p43
aV0785077
p44
aV1680045
p45
aV1294213
p46
aV1457765
p47
aV1663207
p48
aV3577624
p49
aV0803061
p50
a.(lp0
V0410730
p1
aV0413015
p2
aV0808185
p3
aV0432637
p4
aV2345567
p5
aV2725962
p6
aV1053859
p7
aV0414951
p8
aV0349467
p9
aV3672840
p10
aV1945084
p11
aV1731701
p12
aV2004432
p13
aV1668200
p14
aV1051907
p15
aV2965412
p16
aV1242545
p17
aV0997047
p18
aV0870090
p19
aV0422295
p20
aV1554091
p21
aV1183276
p22
aV1274295
p23
aV0425333
p24
aV0389957
p25
aV1434435
p26
aV2509850
p27
aV0923811
p28
aV1816518
p29
aV0422272
p30
aV0484562
p31
aV1188982
p32
aV1911553
p33
aV1316622
p34
aV2980706
p35
aV0466893
p36
aV1705786
p37
aV0806027
p38
aV2247476
p39
aV1013860
p40
aV3449292
p41
aV1989475
p42
aV1230385
p43
aV2406252
p44
aV1791614
p45
aV3595298
p46
aV1807950
p47
aV3704050
p48
aV2471640
p49
aV2366608
p50
a.(lp0
V0381971
p1
aV0448075
p2
aV0376105
p3
aV1107860
p4
aV2216240
p5
aV1604171
p6
aV0484877
p7
aV2383068
p8
aV1434447
p9
aV1577061
p10
aV0906665
p11
aV1981107
p12
aV3766394
p13
aV1152850
p14
aV0879843
p15
aV0499603
p16
aV1320291
p17
aV0805526
p18
aV2279339
p19
aV4285496
p20
aV1701990
p21
aV0363780
p22
aV0850253
p23
aV2309224
p24
aV0492389
p25
aV1966566
p26
aV2793490
p27
aV1588337
p28
aV2535470
p29
aV0240200
p30
aV1698648
p31
aV1438298
p32
aV1650048
p33
aV1911662
p34
aV0914797
p35
aV1291465
p36
aV3467412
p37
aV0488798
p38
aV2882328
p39
aV0462244
p40
aV3520418
p41
aV3480796
p42
aV0783238
p43
aV4635372
p44
aV1396226
p45
aV1954315
p46
aV2349144
p47
aV0810827
p48
aV4009460
p49
aV3409392
p50
a.(lp0
V0402850
p1
aV3175038
p2
aV2486678
p3
aV1319718
p4
aV1032819
p5
aV2027140
p6
aV1023490
p7
aV1361318
p8
aV2319580
p9
aV1686039
p10
aV1935902
p11
aV0893412
p12
aV3726704
p13
aV2955316
p14
aV1438173
p15
aV0857376
p16
aV2617828
p17
aV1648112
p18
aV3707106
p19
aV1570989
p20
aV2784512
p21
aV0470765
p22
aV2960930
p23
aV2345112
p24
aV0444182
p25
aV0473188
p26
aV1602472
p27
aV3125324
p28
aV1375789
p29
aV0479751
p30
aV0815178
p31
aV1486193
p32
aV0976222
p33
aV0417658
p34
aV0480269
p35
aV1292703
p36
aV1700844
p37
aV0455326
p38
aV1212974
p39
aV1975159
p40
aV1545754
p41
aV0409011
p42
aV2764784
p43
aV0418832
p44
aV0844457
p45
aV4728338
p46
aV0460810
p47
aV0365847
p48
aV1447500
p49
aV3844362
p50
a.(lp0
V1275863
p1
aV3801314
p2
aV3576728
p3
aV2265534
p4
aV1142433
p5
aV0488478
p6
aV0452643
p7
aV2245003
p8
aV2083355
p9
aV1395054
p10
aV0974014
p11
aV2006040
p12
aV0981072
p13
aV2268458
p14
aV0988108
p15
aV1550312
p16
aV1975249
p17
aV0432047
p18
aV1609479
p19
aV0940709
p20
aV2944198
p21
aV3704538
p22
aV0419198
p23
aV1649443
p24
aV0765447
p25
aV0860906
p26
aV1922685
p27
aV1119191
p28
aV1499666
p29
aV0477078
p30
aV1996310
p31
aV0951335
p32
aV0461703
p33
aV1969062
p34
aV1545759
p35
aV1392197
p36
aV2967006
p37
aV3447364
p38
aV3508840
p39
aV0453729
p40
aV1663143
p41
aV1226240
p42
aV1708532
p43
aV2386404
p44
aV3327624
p45
aV1173745
p46
aV1836944
p47
aV1954701
p48
aV1718199
p49
aV1371155
p50
a.(lp0
V0400426
p1
aV1883180
p2
aV0808339
p3
aV1146325
p4
aV0480239
p5
aV0481797
p6
aV0412798
p7
aV1341710
p8
aV3140100
p9
aV1524575
p10
aV2974918
p11
aV1231277
p12
aV3083008
p13
aV0810823
p14
aV0429715
p15
aV0496436
p16
aV3479316
p17
aV3733778
p18
aV2179121
p19
aV1931602
p20
aV2414766
p21
aV0758771
p22
aV1999987
p23
aV4270516
p24
aV1185420
p25
aV3399024
p26
aV0424908
p27
aV3774466
p28
aV2844798
p29
aV0772193
p30
aV1213012
p31
aV1134629
p32
aV2224317
p33
aV0445336
p34
aV0423409
p35
aV1661420
p36
aV2281159
p37
aV2112131
p38
aV2409818
p39
aV0489327
p40
aV1456472
p41
aV2802136
p42
aV0475937
p43
aV2032557
p44
aV3495030
p45
aV0458367
p46
aV1235841
p47
aV1712159
p48
aV3705412
p49
aV0494652
p50
a.(lp0
V1029120
p1
aV0466816
p2
aV1049402
p3
aV1316540
p4
aV0844671
p5
aV1311060
p6
aV2965466
p7
aV3014666
p8
aV0453548
p9
aV1032856
p10
aV1948150
p11
aV0420509
p12
aV3173910
p13
aV0448124
p14
aV1260502
p15
aV1441940
p16
aV1833844
p17
aV0475723
p18
aV1135525
p19
aV2427892
p20
aV1581835
p21
aV0961108
p22
aV0995829
p23
aV1673697
p24
aV1179794
p25
aV1121794
p26
aV2103264
p27
aV1756799
p28
aV0780567
p29
aV1238291
p30
aV1653690
p31
aV1216520
p32
aV1407084
p33
aV2043933
p34
aV0992911
p35
aV2625810
p36
aV1183251
p37
aV1560139
p38
aV0437777
p39
aV1523483
p40
aV2474976
p41
aV0376108
p42
aV0422093
p43
aV1287468
p44
aV0456149
p45
aV0964185
p46
aV1705952
p47
aV0944834
p48
aV1640711
p49
aV1407061
p50
a.(lp0
V1828995
p1
aV1572491
p2
aV1313139
p3
aV1937118
p4
aV1629374
p5
aV0465436
p6
aV1854236
p7
aV2561546
p8
aV0899128
p9
aV0211946
p10
aV2621000
p11
aV4935334
p12
aV4107858
p13
aV2168910
p14
aV0455362
p15
aV1037218
p16
aV3477064
p17
aV0425379
p18
aV2234429
p19
aV0264323
p20
aV0961722
p21
aV0395119
p22
aV1643222
p23
aV1427298
p24
aV1795702
p25
aV2852406
p26
aV1528313
p27
aV1068678
p28
aV2962876
p29
aV4110568
p30
aV0795441
p31
aV0829297
p32
aV1757746
p33
aV1801051
p34
aV1331307
p35
aV2172071
p36
aV1985981
p37
aV0423169
p38
aV0435623
p39
aV0438859
p40
aV2077851
p41
aV1575694
p42
aV0816556
p43
aV1797504
p44
aV1610452
p45
aV0787523
p46
aV0430576
p47
aV1770734
p48
aV0808331
p49
aV0389328
p50
a.(lp0
V0425601
p1
aV1422032
p2
aV1980986
p3
aV0418647
p4
aV2404738
p5
aV1126596
p6
aV0451850
p7
aV4195278
p8
aV0465430
p9
aV0412536
p10
aV1129445
p11
aV0926063
p12
aV0471030
p13
aV0494271
p14
aV2639344
p15
aV1403988
p16
aV0869994
p17
aV1153706
p18
aV1810697
p19
aV1198101
p20
aV1261047
p21
aV2070862
p22
aV1990181
p23
aV0368222
p24
aV0433442
p25
aV2193265
p26
aV0816436
p27
aV3471098
p28
aV1536048
p29
aV2517658
p30
aV0858486
p31
aV1167660
p32
aV2503154
p33
aV1185266
p34
aV0453671
p35
aV0825236
p36
aV1756476
p37
aV0806088
p38
aV0792965
p39
aV0497986
p40
aV0454084
p41
aV1838603
p42
aV1836808
p43
aV0485976
p44
aV0790804
p45
aV3181776
p46
aV1182921
p47
aV1121977
p48
aV0443496
p49
aV0906108
p50
a.(lp0
V1433810
p1
aV1104806
p2
aV4272866
p3
aV4430136
p4
aV0365675
p5
aV0844993
p6
aV0425326
p7
aV1133991
p8
aV2091478
p9
aV0959329
p10
aV0462229
p11
aV1588895
p12
aV0878835
p13
aV1694542
p14
aV2178941
p15
aV1552224
p16
aV0831888
p17
aV2465146
p18
aV1010271
p19
aV0420901
p20
aV2234261
p21
aV3832914
p22
aV2852458
p23
aV0473356
p24
aV0450336
p25
aV4432480
p26
aV2099556
p27
aV1705772
p28
aV1757742
p29
aV1264904
p30
aV1142800
p31
aV1270835
p32
aV1235448
p33
aV0446687
p34
aV2055765
p35
aV0402158
p36
aV1411664
p37
aV1097643
p38
aV1646959
p39
aV2299842
p40
aV1477855
p41
aV2580382
p42
aV1634136
p43
aV4025514
p44
aV1784575
p45
aV1483831
p46
aV0323120
p47
aV1017456
p48
aV0964516
p49
aV0494834
p50
a.