(lp0
V1375666
p1
aV1345836
p2
aV0816692
p3
aV0848228
p4
aV1853728
p5
aV0993846
p6
aV1130884
p7
aV2015381
p8
aV1392170
p9
aV0903624
p10
aV2488496
p11
aV1431045
p12
aV2267998
p13
aV1392190
p14
aV1454468
p15
aV1201607
p16
aV1300854
p17
aV0435761
p18
aV0947798
p19
aV0770828
p20
aV0800369
p21
aV1045658
p22
aV1675434
p23
aV3659388
p24
aV1228705
p25
aV1877832
p26
aV1270798
p27
aV0458339
p28
aV1074638
p29
aV1843866
p30
aV2278388
p31
aV1504320
p32
aV2084970
p33
aV0892769
p34
aV1951264
p35
aV2395427
p36
aV1170358
p37
aV1285016
p38
aV1663202
p39
aV0816711
p40
aV1637725
p41
aV1670345
p42
aV1446714
p43
aV2024544
p44
aV2582802
p45
aV2975590
p46
aV1024648
p47
aV0948470
p48
aV1631867
p49
aV0454876
p50
a.(lp0
V0780504
p1
aV0369610
p2
aV1250777
p3
aV2294629
p4
aV1276104
p5
aV1981115
p6
aV1219289
p7
aV2802144
p8
aV2562232
p9
aV1392214
p10
aV1232829
p11
aV1318514
p12
aV2096673
p13
aV3498820
p14
aV1408101
p15
aV1323594
p16
aV1386697
p17
aV1483013
p18
aV0945513
p19
aV1663662
p20
aV1298650
p21
aV1570728
p22
aV1411697
p23
aV1798709
p24
aV2310332
p25
aV1343092
p26
aV1229238
p27
aV1800241
p28
aV1659337
p29
aV0478970
p30
aV1499658
p31
aV1840309
p32
aV2543164
p33
aV1535108
p34
aV0926084
p35
aV1515091
p36
aV1430132
p37
aV1291584
p38
aV2179136
p39
aV2872732
p40
aV0790636
p41
aV1568346
p42
aV1535109
p43
aV3460252
p44
aV1872181
p45
aV0470752
p46
aV1454029
p47
aV2103281
p48
aV1979320
p49
aV3748528
p50
a.(lp0
V1399103
p1
aV2911666
p2
aV3315342
p3
aV1790864
p4
aV2872718
p5
aV1723121
p6
aV2713180
p7
aV1951265
p8
aV1457767
p9
aV1245492
p10
aV1014759
p11
aV1605783
p12
aV1637688
p13
aV1905041
p14
aV1211837
p15
aV0831387
p16
aV0398286
p17
aV2245084
p18
aV2379713
p19
aV1690953
p20
aV2948356
p21
aV2820852
p22
aV1596343
p23
aV2980516
p24
aV1371111
p25
aV1650062
p26
aV1210166
p27
aV1259521
p28
aV1282140
p29
aV1217209
p30
aV0840361
p31
aV1542344
p32
aV0446029
p33
aV1772341
p34
aV0964517
p35
aV1065073
p36
aV1632708
p37
aV3385516
p38
aV1320253
p39
aV1231583
p40
aV2294449
p41
aV3783958
p42
aV1306980
p43
aV1409024
p44
aV1907668
p45
aV1895587
p46
aV1104001
p47
aV2582846
p48
aV1587310
p49
aV1490017
p50
a.(lp0
V0433035
p1
aV2788710
p2
aV0970179
p3
aV2381249
p4
aV2109248
p5
aV1707386
p6
aV1764651
p7
aV0944835
p8
aV1748122
p9
aV1403865
p10
aV1453405
p11
aV0790724
p12
aV1596363
p13
aV1397280
p14
aV1245526
p15
aV0359950
p16
aV0455944
p17
aV3183660
p18
aV3397884
p19
aV1194173
p20
aV2322441
p21
aV1037705
p22
aV1951261
p23
aV1735898
p24
aV1646971
p25
aV1253863
p26
aV0800320
p27
aV2004420
p28
aV2119532
p29
aV0473075
p30
aV1133985
p31
aV3170832
p32
aV1478338
p33
aV1981677
p34
aV1790885
p35
aV1645170
p36
aV2194499
p37
aV0955308
p38
aV1591095
p39
aV3682448
p40
aV0401729
p41
aV1091191
p42
aV0429493
p43
aV1401152
p44
aV1650554
p45
aV2302755
p46
aV1343727
p47
aV1706593
p48
aV1355644
p49
aV2024469
p50
a.(lp0
V1386703
p1
aV1601913
p2
aV1033575
p3
aV1440129
p4
aV1077368
p5
aV1959490
p6
aV1385826
p7
aV0443272
p8
aV1340138
p9
aV1638355
p10
aV1951266
p11
aV0978764
p12
aV1464540
p13
aV3040964
p14
aV1213663
p15
aV1092026
p16
aV1706620
p17
aV0451279
p18
aV1817273
p19
aV1386588
p20
aV2229499
p21
aV1655442
p22
aV1302011
p23
aV1179933
p24
aV1931533
p25
aV1124035
p26
aV1212450
p27
aV2106476
p28
aV1192628
p29
aV1673434
p30
aV1731141
p31
aV1588173
p32
aV1325004
p33
aV1855199
p34
aV1210819
p35
aV0803096
p36
aV1234721
p37
aV1375670
p38
aV1823672
p39
aV1324999
p40
aV2397535
p41
aV3079380
p42
aV1211956
p43
aV4972582
p44
aV1598778
p45
aV1243957
p46
aV2209764
p47
aV0983193
p48
aV3896198
p49
aV1001526
p50
a.