(lp0
V2488496
p1
aV1392190
p2
aV3659388
p3
aV2395427
p4
aV1663202
p5
aV0369610
p6
aV2096673
p7
aV0478970
p8
aV3460252
p9
aV2379713
p10
aV2820852
p11
aV1895587
p12
aV2381249
p13
aV1596363
p14
aV3397884
p15
aV2322441
p16
aV3170832
p17
aV3682448
p18
aV1340138
p19
aV1638355
p20
aV1951266
p21
aV1823672
p22
aV3079380
p23
aV3076658
p24
aV2908446
p25
aV1798684
p26
aV2381941
p27
aV2126355
p28
aV2293640
p29
aV2361509
p30
aV4046784
p31
aV2719848
p32
aV1617661
p33
aV1964418
p34
aV1398426
p35
aV2637276
p36
aV1355683
p37
aV3464902
p38
aV1502712
p39
aV1661199
p40
aV2080374
p41
aV1655441
p42
aV0810819
p43
aV3569230
p44
aV2848292
p45
aV3152624
p46
aV4263482
p47
aV2120120
p48
aV2446980
p49
aV4178092
p50
a.