(lp0
V1431045
p1
aV2975590
p2
aV3498820
p3
aV1386697
p4
aV2543164
p5
aV3748528
p6
aV3315342
p7
aV1211837
p8
aV2948356
p9
aV3385516
p10
aV3783958
p11
aV3183660
p12
aV2119532
p13
aV1355644
p14
aV3040964
p15
aV0451279
p16
aV1179933
p17
aV0803096
p18
aV4972582
p19
aV3896198
p20
aV3799694
p21
aV2140479
p22
aV2660888
p23
aV2277860
p24
aV3110958
p25
aV4196776
p26
aV4425200
p27
aV4776998
p28
aV1289401
p29
aV5052448
p30
aV4975722
p31
aV2771200
p32
aV4034228
p33
aV3263904
p34
aV3065204
p35
aV3521164
p36
aV4550098
p37
aV1628841
p38
aV3731562
p39
aV2404435
p40
aV4160708
p41
aV2709768
p42
aV1700841
p43
aV2094766
p44
aV0918940
p45
aV2582782
p46
aV2674426
p47
aV3741834
p48
aV2005151
p49
aV4630562
p50
a.