(lp0
V1431045
p1
aV2975590
p2
aV3498820
p3
aV1386697
p4
aV2543164
p5
aV3748528
p6
aV1211837
p7
aV2948356
p8
aV3385516
p9
aV3783958
p10
aV3183660
p11
aV2119532
p12
aV1355644
p13
aV3040964
p14
aV1179933
p15
aV0803096
p16
aV4972582
p17
aV3799694
p18
aV2140479
p19
aV2660888
p20
aV2277860
p21
aV3110958
p22
aV4196776
p23
aV4776998
p24
aV1289401
p25
aV4975722
p26
aV4034228
p27
aV3263904
p28
aV3065204
p29
aV3521164
p30
aV4550098
p31
aV1628841
p32
aV2404435
p33
aV4160708
p34
aV2709768
p35
aV1700841
p36
aV2094766
p37
aV0918940
p38
aV2582782
p39
aV2674426
p40
aV3741834
p41
aV2005151
p42
aV3553976
p43
aV3631112
p44
aV1935859
p45
aV4846340
p46
aV3062096
p47
aV3300542
p48
aV1489889
p49
aV1860357
p50
a.